
test_time_memories_RW.elf:     file format elf32-littlenios2
test_time_memories_RW.elf
architecture: nios2, flags 0x00000112:
EXEC_P, HAS_SYMS, D_PAGED
start address 0x010801b4

Program Header:
    LOAD off    0x00001000 vaddr 0x01080000 paddr 0x01080000 align 2**12
         filesz 0x00000020 memsz 0x00000020 flags r-x
    LOAD off    0x00001020 vaddr 0x01080020 paddr 0x01080020 align 2**12
         filesz 0x00002c84 memsz 0x00002c84 flags r-x
    LOAD off    0x00003ca4 vaddr 0x01082ca4 paddr 0x01082f84 align 2**12
         filesz 0x000002e0 memsz 0x000002e0 flags rw-
    LOAD off    0x00004264 vaddr 0x01083264 paddr 0x01083264 align 2**12
         filesz 0x00000000 memsz 0x00001124 flags rw-

Sections:
Idx Name          Size      VMA       LMA       File off  Algn
  0 .entry        00000020  01080000  01080000  00001000  2**5
                  CONTENTS, ALLOC, LOAD, READONLY, CODE
  1 .exceptions   00000194  01080020  01080020  00001020  2**2
                  CONTENTS, ALLOC, LOAD, READONLY, CODE
  2 .text         000029d0  010801b4  010801b4  000011b4  2**2
                  CONTENTS, ALLOC, LOAD, READONLY, CODE
  3 .rodata       00000120  01082b84  01082b84  00003b84  2**2
                  CONTENTS, ALLOC, LOAD, READONLY, DATA
  4 .rwdata       000002e0  01082ca4  01082f84  00003ca4  2**2
                  CONTENTS, ALLOC, LOAD, DATA, SMALL_DATA
  5 .bss          00001124  01083264  01083264  00004264  2**2
                  ALLOC, SMALL_DATA
  6 .comment      00000026  00000000  00000000  00003f84  2**0
                  CONTENTS, READONLY
  7 .debug_aranges 00000578  00000000  00000000  00003fb0  2**3
                  CONTENTS, READONLY, DEBUGGING
  8 .debug_pubnames 00000858  00000000  00000000  00004528  2**0
                  CONTENTS, READONLY, DEBUGGING
  9 .debug_info   0000a2f7  00000000  00000000  00004d80  2**0
                  CONTENTS, READONLY, DEBUGGING
 10 .debug_abbrev 0000266b  00000000  00000000  0000f077  2**0
                  CONTENTS, READONLY, DEBUGGING
 11 .debug_line   0000714f  00000000  00000000  000116e2  2**0
                  CONTENTS, READONLY, DEBUGGING
 12 .debug_frame  0000095c  00000000  00000000  00018834  2**2
                  CONTENTS, READONLY, DEBUGGING
 13 .debug_str    00000da3  00000000  00000000  00019190  2**0
                  CONTENTS, READONLY, DEBUGGING
 14 .debug_loc    00001807  00000000  00000000  00019f33  2**0
                  CONTENTS, READONLY, DEBUGGING
 15 .debug_alt_sim_info 00000020  00000000  00000000  0001b73c  2**2
                  CONTENTS, READONLY, DEBUGGING
 16 .debug_ranges 000001d0  00000000  00000000  0001b760  2**3
                  CONTENTS, READONLY, DEBUGGING
 17 .thread_model 00000003  00000000  00000000  0001d488  2**0
                  CONTENTS, READONLY
 18 .cpu          00000003  00000000  00000000  0001d48b  2**0
                  CONTENTS, READONLY
 19 .qsys         00000001  00000000  00000000  0001d48e  2**0
                  CONTENTS, READONLY
 20 .simulation_enabled 00000001  00000000  00000000  0001d48f  2**0
                  CONTENTS, READONLY
 21 .sysid_hash   00000004  00000000  00000000  0001d490  2**0
                  CONTENTS, READONLY
 22 .sysid_base   00000004  00000000  00000000  0001d494  2**0
                  CONTENTS, READONLY
 23 .sysid_time   00000004  00000000  00000000  0001d498  2**0
                  CONTENTS, READONLY
 24 .stderr_dev   00000009  00000000  00000000  0001d49c  2**0
                  CONTENTS, READONLY
 25 .stdin_dev    00000009  00000000  00000000  0001d4a5  2**0
                  CONTENTS, READONLY
 26 .stdout_dev   00000009  00000000  00000000  0001d4ae  2**0
                  CONTENTS, READONLY
 27 .sopc_system_name 00000012  00000000  00000000  0001d4b7  2**0
                  CONTENTS, READONLY
 28 .quartus_project_dir 0000002e  00000000  00000000  0001d4c9  2**0
                  CONTENTS, READONLY
 29 .jdi          00005577  00000000  00000000  0001d4f7  2**0
                  CONTENTS, READONLY
 30 .sopcinfo     0004599d  00000000  00000000  00022a6e  2**0
                  CONTENTS, READONLY
SYMBOL TABLE:
01080000 l    d  .entry	00000000 .entry
01080020 l    d  .exceptions	00000000 .exceptions
010801b4 l    d  .text	00000000 .text
01082b84 l    d  .rodata	00000000 .rodata
01082ca4 l    d  .rwdata	00000000 .rwdata
01083264 l    d  .bss	00000000 .bss
00000000 l    d  .comment	00000000 .comment
00000000 l    d  .debug_aranges	00000000 .debug_aranges
00000000 l    d  .debug_pubnames	00000000 .debug_pubnames
00000000 l    d  .debug_info	00000000 .debug_info
00000000 l    d  .debug_abbrev	00000000 .debug_abbrev
00000000 l    d  .debug_line	00000000 .debug_line
00000000 l    d  .debug_frame	00000000 .debug_frame
00000000 l    d  .debug_str	00000000 .debug_str
00000000 l    d  .debug_loc	00000000 .debug_loc
00000000 l    d  .debug_alt_sim_info	00000000 .debug_alt_sim_info
00000000 l    d  .debug_ranges	00000000 .debug_ranges
010801ec l       .text	00000000 alt_after_alt_main
00000000 l    df *ABS*	00000000 alt_irq_handler.c
00000000 l    df *ABS*	00000000 count_binary.c
00000000 l    df *ABS*	00000000 printf.c
00000000 l    df *ABS*	00000000 puts.c
00000000 l    df *ABS*	00000000 strlen.c
00000000 l    df *ABS*	00000000 vfprintf.c
01080768 l     F .text	00000080 print_repeat
00000000 l    df *ABS*	00000000 fvwrite_small_dev.c
00000000 l    df *ABS*	00000000 impure.c
01082ca4 l     O .rwdata	000000e0 impure_data
00000000 l    df *ABS*	00000000 writer.c
00000000 l    df *ABS*	00000000 int_errno.c
00000000 l    df *ABS*	00000000 lib2-divmod.c
01080fdc l     F .text	0000007c udivmodsi4
00000000 l    df *ABS*	00000000 lib2-mul.c
00000000 l    df *ABS*	00000000 alt_load.c
010811e0 l     F .text	0000006c alt_load_section
00000000 l    df *ABS*	00000000 alt_main.c
00000000 l    df *ABS*	00000000 alt_write.c
010813cc l     F .text	00000060 alt_get_errno
00000000 l    df *ABS*	00000000 alt_sys_init.c
01082d84 l     O .rwdata	0000002c jtag_uart
010814d0 l     F .text	00000038 alt_dev_reg
00000000 l    df *ABS*	00000000 altera_avalon_jtag_uart_fd.c
00000000 l    df *ABS*	00000000 altera_avalon_jtag_uart_read.c
00000000 l    df *ABS*	00000000 altera_avalon_jtag_uart_write.c
00000000 l    df *ABS*	00000000 altera_avalon_timer_sc.c
01081760 l     F .text	00000070 alt_avalon_timer_sc_irq
00000000 l    df *ABS*	00000000 altera_avalon_timer_ts.c
00000000 l    df *ABS*	00000000 altera_avalon_timer_vars.c
00000000 l    df *ABS*	00000000 alt_close.c
01081ac8 l     F .text	00000060 alt_get_errno
00000000 l    df *ABS*	00000000 alt_dcache_flush_all.c
00000000 l    df *ABS*	00000000 alt_dev.c
01081b44 l     F .text	0000002c alt_dev_null_write
00000000 l    df *ABS*	00000000 alt_dev_llist_insert.c
01081c24 l     F .text	00000060 alt_get_errno
00000000 l    df *ABS*	00000000 alt_errno.c
00000000 l    df *ABS*	00000000 alt_icache_flush_all.c
00000000 l    df *ABS*	00000000 alt_iic.c
00000000 l    df *ABS*	00000000 alt_iic_isr_register.c
00000000 l    df *ABS*	00000000 alt_io_redirect.c
01081f80 l     F .text	000000d8 alt_open_fd
00000000 l    df *ABS*	00000000 alt_irq_vars.c
00000000 l    df *ABS*	00000000 alt_open.c
010820d0 l     F .text	000000f8 alt_file_locked
01082354 l     F .text	00000060 alt_get_errno
00000000 l    df *ABS*	00000000 alt_release_fd.c
00000000 l    df *ABS*	00000000 alt_tick.c
00000000 l    df *ABS*	00000000 altera_nios2_qsys_irq.c
00000000 l    df *ABS*	00000000 alt_find_dev.c
00000000 l    df *ABS*	00000000 alt_find_file.c
00000000 l    df *ABS*	00000000 alt_get_fd.c
00000000 l    df *ABS*	00000000 alt_icache_flush.c
00000000 l    df *ABS*	00000000 exit.c
00000000 l    df *ABS*	00000000 memcmp.c
00000000 l    df *ABS*	00000000 __call_atexit.c
01082960 l     F .text	00000004 register_fini
00000000 l    df *ABS*	00000000 alt_exit.c
01082b20 l     F .text	00000040 alt_sim_halt
0108124c g     F .text	0000005c alt_main
010806a4 g     F .text	00000090 _puts_r
01084288 g     O .bss	00000100 alt_irq
01082f84 g       *ABS*	00000000 __flash_rwdata_start
0108060c g     F .text	00000054 printf
01083278 g     O .bss	00000004 altera_avalon_timer_ts_freq
00000000  w      *UND*	00000000 __errno
01080000 g     F .entry	0000001c __reset
01080020 g       *ABS*	00000000 __flash_exceptions_start
01083264 g     O .bss	00000004 errno
0108326c g     O .bss	00000004 alt_argv
0108af58 g       *ABS*	00000000 _gp
01082dd8 g     O .rwdata	00000180 alt_fd_list
010825f0 g     F .text	00000094 alt_find_dev
01082058 g     F .text	00000078 alt_io_redirect
01080734 g     F .text	00000014 puts
010815b8 g     F .text	00000104 altera_avalon_jtag_uart_read
01080660 g     F .text	00000044 _printf_r
01081118 g     F .text	00000008 __udivsi3
01082874 g     F .text	00000090 alt_icache_flush
01082f70 g     O .rwdata	00000004 alt_max_fd
01082f5c g     O .rwdata	00000004 _global_impure_ptr
01084388 g       *ABS*	00000000 __bss_end
01081e88 g     F .text	000000f8 alt_iic_isr_register
010824c4 g     F .text	0000010c alt_tick
01081e40 g     F .text	00000048 alt_ic_irq_enabled
0108242c g     F .text	00000098 alt_alarm_stop
0108327c g     O .bss	00000004 alt_irq_active
01108000 g       *ABS*	00000000 __alt_mem_onchip_mem
010800ec g     F .exceptions	000000c8 alt_irq_handler
01082db0 g     O .rwdata	00000028 alt_dev_null
01081b28 g     F .text	0000001c alt_dcache_flush_all
01082f84 g       *ABS*	00000000 __ram_rwdata_end
01082f68 g     O .rwdata	00000008 alt_dev_list
010812a8 g     F .text	00000124 write
010819a0 g     F .text	00000028 alt_timestamp_freq
01082ca4 g       *ABS*	00000000 __ram_rodata_end
01081120 g     F .text	00000008 __umodsi3
01084388 g       *ABS*	00000000 end
01100000 g       *ABS*	00000000 __alt_stack_pointer
010817d0 g     F .text	00000090 alt_avalon_timer_sc_init
010816bc g     F .text	000000a4 altera_avalon_jtag_uart_write
010807e8 g     F .text	0000069c ___vfprintf_internal_r
01082964 g     F .text	000001bc __call_exitprocs
010801b4 g     F .text	0000003c _start
01083280 g     O .bss	00000004 _alt_tick_rate
01083284 g     O .bss	00000004 _alt_nticks
01081460 g     F .text	00000070 alt_sys_init
01081128 g     F .text	00000038 __mulsi3
01082ca4 g       *ABS*	00000000 __ram_rwdata_start
01082b84 g       *ABS*	00000000 __ram_rodata_start
01081508 g     F .text	00000058 altera_avalon_jtag_uart_read_fd
010827a4 g     F .text	000000d0 alt_get_fd
01082924 g     F .text	0000003c memcmp
01084388 g       *ABS*	00000000 __alt_stack_base
01082684 g     F .text	00000120 alt_find_file
01081b70 g     F .text	000000b4 alt_dev_llist_insert
01080ea8 g     F .text	000000bc __sfvwrite_small_dev
01083264 g       *ABS*	00000000 __bss_start
010801f0 g     F .text	0000041c main
01083270 g     O .bss	00000004 alt_envp
01081560 g     F .text	00000058 altera_avalon_jtag_uart_write_fd
01081860 g     F .text	000000a4 alt_timestamp_start
01082f74 g     O .rwdata	00000004 alt_errno
01081058 g     F .text	00000060 __divsi3
01082b84 g       *ABS*	00000000 __flash_rodata_start
01080000 g       *ABS*	00000000 __alt_mem_sram_0
0108142c g     F .text	00000034 alt_irq_init
010823b4 g     F .text	00000078 alt_release_fd
01080f64 g     F .text	00000078 _write_r
01082f58 g     O .rwdata	00000004 _impure_ptr
01083268 g     O .bss	00000004 alt_argc
01083274 g     O .bss	00000004 altera_avalon_timer_ts_base
01080020 g       .exceptions	00000000 alt_irq_entry
01082f60 g     O .rwdata	00000008 alt_fs_list
01080020 g       *ABS*	00000000 __ram_exceptions_start
01081904 g     F .text	0000009c alt_timestamp
01081cb4 g     F .text	00000050 alt_ic_isr_register
01082f84 g       *ABS*	00000000 _edata
01084388 g       *ABS*	00000000 _end
010801b4 g       *ABS*	00000000 __ram_exceptions_end
01081da0 g     F .text	000000a0 alt_ic_irq_disable
010825d0 g     F .text	00000020 altera_nios2_qsys_irq_init
01082904 g     F .text	00000020 exit
010810b8 g     F .text	00000060 __modsi3
01100000 g       *ABS*	00000000 __alt_data_end
01080020 g     F .exceptions	00000000 alt_exception
00800000 g       *ABS*	00000000 __alt_mem_sdram
01082b60 g     F .text	00000020 _exit
01080748 g     F .text	00000020 strlen
010821c8 g     F .text	0000018c open
01081c84 g     F .text	00000030 alt_icache_flush_all
01082f78 g     O .rwdata	00000004 alt_priority_mask
01081d04 g     F .text	0000009c alt_ic_irq_enable
01080e84 g     F .text	00000024 __vfprintf_internal
01082f7c g     O .rwdata	00000008 alt_alarm_list
01083288 g     O .bss	00001000 pepe
010819c8 g     F .text	00000100 close
01081160 g     F .text	00000080 alt_load
00000000  w      *UND*	00000000 free



Disassembly of section .entry:

01080000 <__reset>:
#if NIOS2_ICACHE_SIZE > 0 && defined(ALT_ALLOW_CODE_AT_RESET) && !defined(ALT_SIM_OPTIMIZE)
    /* Assume the instruction cache size is always a power of two. */
#if NIOS2_ICACHE_SIZE > 0x8000
    movhi r2, %hi(NIOS2_ICACHE_SIZE)
#else
    movui r2, NIOS2_ICACHE_SIZE
 1080000:	00820014 	movui	r2,2048
#endif

0:
    initi r2
 1080004:	1001483a 	initi	r2
    addi r2, r2, -NIOS2_ICACHE_LINE_SIZE
 1080008:	10bff804 	addi	r2,r2,-32
    bgt r2, zero, 0b
 108000c:	00bffd16 	blt	zero,r2,1080004 <__reset+0x4>
 * Jump to the _start entry point in the .text section if reset code
 * is allowed or if optimizing for RTL simulation.
 */
#if defined(ALT_ALLOW_CODE_AT_RESET) || defined(ALT_SIM_OPTIMIZE)
    /* Jump to the _start entry point in the .text section. */
    movhi r1, %hi(_start)
 1080010:	00404234 	movhi	at,264
    ori r1, r1, %lo(_start)
 1080014:	08406d14 	ori	at,at,436
    jmp r1
 1080018:	0800683a 	jmp	at
 108001c:	00000000 	call	0 <__alt_mem_sdram-0x800000>

Disassembly of section .exceptions:

01080020 <alt_exception>:
         * Process an exception.  For all exceptions we must preserve all
         * caller saved registers on the stack (See the Nios2 ABI
         * documentation for details).
         */

        addi  sp, sp, -76
 1080020:	deffed04 	addi	sp,sp,-76

#endif

#endif

        stw   ra,  0(sp)
 1080024:	dfc00015 	stw	ra,0(sp)
        /*
         * Leave a gap in the stack frame at 4(sp) for the muldiv handler to
         * store zero into.
         */

        stw   r1,   8(sp)
 1080028:	d8400215 	stw	at,8(sp)
        stw   r2,  12(sp)
 108002c:	d8800315 	stw	r2,12(sp)
        stw   r3,  16(sp)
 1080030:	d8c00415 	stw	r3,16(sp)
        stw   r4,  20(sp)
 1080034:	d9000515 	stw	r4,20(sp)
        stw   r5,  24(sp)
 1080038:	d9400615 	stw	r5,24(sp)
        stw   r6,  28(sp)
 108003c:	d9800715 	stw	r6,28(sp)
        stw   r7,  32(sp)
 1080040:	d9c00815 	stw	r7,32(sp)

        rdctl r5, estatus
 1080044:	000b307a 	rdctl	r5,estatus

        stw   r8,  36(sp)
 1080048:	da000915 	stw	r8,36(sp)
        stw   r9,  40(sp)
 108004c:	da400a15 	stw	r9,40(sp)
        stw   r10, 44(sp)
 1080050:	da800b15 	stw	r10,44(sp)
        stw   r11, 48(sp)
 1080054:	dac00c15 	stw	r11,48(sp)
        stw   r12, 52(sp)
 1080058:	db000d15 	stw	r12,52(sp)
        stw   r13, 56(sp)
 108005c:	db400e15 	stw	r13,56(sp)
        stw   r14, 60(sp)
 1080060:	db800f15 	stw	r14,60(sp)
        stw   r15, 64(sp)
 1080064:	dbc01015 	stw	r15,64(sp)
        /*
         * ea-4 contains the address of the instruction being executed
         * when the exception occured. For interrupt exceptions, we will
         * will be re-issue the isntruction. Store it in 72(sp)
         */
        stw   r5,  68(sp)  /* estatus */
 1080068:	d9401115 	stw	r5,68(sp)
        addi  r15, ea, -4  /* instruction that caused exception */
 108006c:	ebffff04 	addi	r15,ea,-4
        stw   r15,  72(sp)
 1080070:	dbc01215 	stw	r15,72(sp)
#else
        /*
         * Test to see if the exception was a software exception or caused 
         * by an external interrupt, and vector accordingly.
         */
        rdctl r4, ipending
 1080074:	0009313a 	rdctl	r4,ipending
        andi  r2, r5, 1
 1080078:	2880004c 	andi	r2,r5,1
        beq   r2, zero, .Lnot_irq
 108007c:	10000326 	beq	r2,zero,108008c <alt_exception+0x6c>
        beq   r4, zero, .Lnot_irq
 1080080:	20000226 	beq	r4,zero,108008c <alt_exception+0x6c>
        /*
         * Now that all necessary registers have been preserved, call 
         * alt_irq_handler() to process the interrupts.
         */

        call alt_irq_handler
 1080084:	10800ec0 	call	10800ec <alt_irq_handler>

        .section .exceptions.irqreturn, "xa"

        br    .Lexception_exit
 1080088:	00000306 	br	1080098 <alt_exception+0x78>
         * upon completion, so we write ea (address of instruction *after*
         * the one where the exception occured) into 72(sp). The actual
         * instruction that caused the exception is written in r2, which these
         * handlers will utilize.
         */
        stw   ea,  72(sp)  /* Don't re-issue */
 108008c:	df401215 	stw	ea,72(sp)
        ldw   r2, -4(ea)   /* Instruction that caused exception */
 1080090:	e8bfff17 	ldw	r2,-4(ea)
#ifdef NIOS2_HAS_DEBUG_STUB
       /*
        *  Either tell the user now (if there is a debugger attached) or go into
        *  the debug monitor which will loop until a debugger is attached.
        */
        break
 1080094:	003da03a 	break	0
        /* 
         * Restore the saved registers, so that all general purpose registers 
         * have been restored to their state at the time the interrupt occured.
         */

        ldw   r5,  68(sp)
 1080098:	d9401117 	ldw	r5,68(sp)
        ldw   ea,  72(sp)  /* This becomes the PC once eret is executed */
 108009c:	df401217 	ldw	ea,72(sp)
        ldw   ra,   0(sp)
 10800a0:	dfc00017 	ldw	ra,0(sp)

        wrctl estatus, r5
 10800a4:	2801707a 	wrctl	estatus,r5

        ldw   r1,   8(sp)
 10800a8:	d8400217 	ldw	at,8(sp)
        ldw   r2,  12(sp)
 10800ac:	d8800317 	ldw	r2,12(sp)
        ldw   r3,  16(sp)
 10800b0:	d8c00417 	ldw	r3,16(sp)
        ldw   r4,  20(sp)
 10800b4:	d9000517 	ldw	r4,20(sp)
        ldw   r5,  24(sp)
 10800b8:	d9400617 	ldw	r5,24(sp)
        ldw   r6,  28(sp)
 10800bc:	d9800717 	ldw	r6,28(sp)
        ldw   r7,  32(sp)
 10800c0:	d9c00817 	ldw	r7,32(sp)
#ifdef ALT_STACK_CHECK
        ldw   et, %gprel(alt_exception_old_stack_limit)(gp)
#endif
#endif

        ldw   r8,  36(sp)
 10800c4:	da000917 	ldw	r8,36(sp)
        ldw   r9,  40(sp)
 10800c8:	da400a17 	ldw	r9,40(sp)
        ldw   r10, 44(sp)
 10800cc:	da800b17 	ldw	r10,44(sp)
        ldw   r11, 48(sp)
 10800d0:	dac00c17 	ldw	r11,48(sp)
        ldw   r12, 52(sp)
 10800d4:	db000d17 	ldw	r12,52(sp)
        ldw   r13, 56(sp)
 10800d8:	db400e17 	ldw	r13,56(sp)
        ldw   r14, 60(sp)
 10800dc:	db800f17 	ldw	r14,60(sp)
        ldw   r15, 64(sp)
 10800e0:	dbc01017 	ldw	r15,64(sp)
#endif

        ldw   sp,  76(sp)

#else
        addi  sp, sp, 76
 10800e4:	dec01304 	addi	sp,sp,76

        /*
         * Return to the interrupted instruction.
         */

        eret
 10800e8:	ef80083a 	eret

010800ec <alt_irq_handler>:
 * instruction is present if the macro ALT_CI_INTERRUPT_VECTOR defined.
 */

void alt_irq_handler (void) __attribute__ ((section (".exceptions")));
void alt_irq_handler (void)
{
 10800ec:	defff904 	addi	sp,sp,-28
 10800f0:	dfc00615 	stw	ra,24(sp)
 10800f4:	df000515 	stw	fp,20(sp)
 10800f8:	df000504 	addi	fp,sp,20
#ifndef NIOS2_EIC_PRESENT
static ALT_INLINE alt_u32 ALT_ALWAYS_INLINE alt_irq_pending (void)
{
  alt_u32 active;

  NIOS2_READ_IPENDING (active);
 10800fc:	0005313a 	rdctl	r2,ipending
 1080100:	e0bffc15 	stw	r2,-16(fp)

  return active;
 1080104:	e0bffc17 	ldw	r2,-16(fp)
   * Consider the case where the high priority interupt is asserted during
   * the interrupt entry sequence for a lower priority interrupt to see why
   * this is the case.
   */

  active = alt_irq_pending ();
 1080108:	e0bfff15 	stw	r2,-4(fp)

  do
  {
    i = 0;
 108010c:	e03ffd15 	stw	zero,-12(fp)
    mask = 1;
 1080110:	00800044 	movi	r2,1
 1080114:	e0bffe15 	stw	r2,-8(fp)
     * called to clear the interrupt condition.
     */

    do
    {
      if (active & mask)
 1080118:	e0ffff17 	ldw	r3,-4(fp)
 108011c:	e0bffe17 	ldw	r2,-8(fp)
 1080120:	1884703a 	and	r2,r3,r2
 1080124:	1005003a 	cmpeq	r2,r2,zero
 1080128:	1000161e 	bne	r2,zero,1080184 <alt_irq_handler+0x98>
      { 
#ifdef ALT_ENHANCED_INTERRUPT_API_PRESENT
        alt_irq[i].handler(alt_irq[i].context); 
 108012c:	e0bffd17 	ldw	r2,-12(fp)
 1080130:	00c04234 	movhi	r3,264
 1080134:	18d0a204 	addi	r3,r3,17032
 1080138:	100490fa 	slli	r2,r2,3
 108013c:	10c5883a 	add	r2,r2,r3
 1080140:	11400017 	ldw	r5,0(r2)
 1080144:	e0bffd17 	ldw	r2,-12(fp)
 1080148:	00c04234 	movhi	r3,264
 108014c:	18d0a204 	addi	r3,r3,17032
 1080150:	100490fa 	slli	r2,r2,3
 1080154:	10c5883a 	add	r2,r2,r3
 1080158:	10800104 	addi	r2,r2,4
 108015c:	11000017 	ldw	r4,0(r2)
 1080160:	283ee83a 	callr	r5
#ifndef NIOS2_EIC_PRESENT
static ALT_INLINE alt_u32 ALT_ALWAYS_INLINE alt_irq_pending (void)
{
  alt_u32 active;

  NIOS2_READ_IPENDING (active);
 1080164:	0005313a 	rdctl	r2,ipending
 1080168:	e0bffb15 	stw	r2,-20(fp)

  return active;
 108016c:	e0bffb17 	ldw	r2,-20(fp)
      mask <<= 1;
      i++;

    } while (1);

    active = alt_irq_pending ();
 1080170:	e0bfff15 	stw	r2,-4(fp)
    
  } while (active);
 1080174:	e0bfff17 	ldw	r2,-4(fp)
 1080178:	1004c03a 	cmpne	r2,r2,zero
 108017c:	103fe31e 	bne	r2,zero,108010c <alt_irq_handler+0x20>
 1080180:	00000706 	br	10801a0 <alt_irq_handler+0xb4>
#else
        alt_irq[i].handler(alt_irq[i].context, i); 
#endif
        break;
      }
      mask <<= 1;
 1080184:	e0bffe17 	ldw	r2,-8(fp)
 1080188:	1085883a 	add	r2,r2,r2
 108018c:	e0bffe15 	stw	r2,-8(fp)
      i++;
 1080190:	e0bffd17 	ldw	r2,-12(fp)
 1080194:	10800044 	addi	r2,r2,1
 1080198:	e0bffd15 	stw	r2,-12(fp)

    } while (1);
 108019c:	003fde06 	br	1080118 <alt_irq_handler+0x2c>
  /*
   * Notify the operating system that interrupt processing is complete.
   */ 

  ALT_OS_INT_EXIT();
}
 10801a0:	e037883a 	mov	sp,fp
 10801a4:	dfc00117 	ldw	ra,4(sp)
 10801a8:	df000017 	ldw	fp,0(sp)
 10801ac:	dec00204 	addi	sp,sp,8
 10801b0:	f800283a 	ret

Disassembly of section .text:

010801b4 <_start>:
#if (NIOS2_NUM_OF_SHADOW_REG_SETS == 0)    
    /*
     * Now that the caches are initialized, set up the stack pointer.
     * The value provided by the linker is assumed to be correctly aligned.
     */
    movhi sp, %hi(__alt_stack_pointer)
 10801b4:	06c04434 	movhi	sp,272
    ori sp, sp, %lo(__alt_stack_pointer)
 10801b8:	dec00014 	ori	sp,sp,0

    /* Set up the global pointer. */
    movhi gp, %hi(_gp)
 10801bc:	06804234 	movhi	gp,264
    ori gp, gp, %lo(_gp)
 10801c0:	d6abd614 	ori	gp,gp,44888
 */
#ifndef ALT_SIM_OPTIMIZE
    /* Log that the BSS is about to be cleared. */
    ALT_LOG_PUTS(alt_log_msg_bss)

    movhi r2, %hi(__bss_start)
 10801c4:	00804234 	movhi	r2,264
    ori r2, r2, %lo(__bss_start)
 10801c8:	108c9914 	ori	r2,r2,12900

    movhi r3, %hi(__bss_end)
 10801cc:	00c04234 	movhi	r3,264
    ori r3, r3, %lo(__bss_end)
 10801d0:	18d0e214 	ori	r3,r3,17288

    beq r2, r3, 1f
 10801d4:	10c00326 	beq	r2,r3,10801e4 <_start+0x30>

0:
    stw zero, (r2)
 10801d8:	10000015 	stw	zero,0(r2)
    addi r2, r2, 4
 10801dc:	10800104 	addi	r2,r2,4
    bltu r2, r3, 0b
 10801e0:	10fffd36 	bltu	r2,r3,10801d8 <_start+0x24>
     * section aren't defined until alt_load() has been called).
     */
    mov   et, zero
#endif

    call alt_load
 10801e4:	10811600 	call	1081160 <alt_load>

    /* Log that alt_main is about to be called. */
    ALT_LOG_PUTS(alt_log_msg_alt_main)

    /* Call the C entry point. It should never return. */
    call alt_main
 10801e8:	108124c0 	call	108124c <alt_main>

010801ec <alt_after_alt_main>:

    /* Wait in infinite loop in case alt_main does return. */
alt_after_alt_main:
    br alt_after_alt_main
 10801ec:	003fff06 	br	10801ec <alt_after_alt_main>

010801f0 <main>:
// IORD y IOWR para evitar el cache de datos

int pepe[PALABRAS];

int main(void)
{ 
 10801f0:	defffa04 	addi	sp,sp,-24
 10801f4:	dfc00515 	stw	ra,20(sp)
 10801f8:	df000415 	stw	fp,16(sp)
 10801fc:	df000404 	addi	fp,sp,16
	alt_u32 timeEndOnChip;


	register dato;
	int i;
	int *buffer = pepe;
 1080200:	00804234 	movhi	r2,264
 1080204:	108ca204 	addi	r2,r2,12936
 1080208:	e0bffc15 	stw	r2,-16(fp)

	if (alt_timestamp_start() != 0) {
 108020c:	10818600 	call	1081860 <alt_timestamp_start>
 1080210:	1005003a 	cmpeq	r2,r2,zero
 1080214:	1000041e 	bne	r2,zero,1080228 <main+0x38>
		printf("No timestamp device available\n");
 1080218:	01004234 	movhi	r4,264
 108021c:	210ae104 	addi	r4,r4,11140
 1080220:	10807340 	call	1080734 <puts>
 1080224:	00003d06 	br	108031c <main+0x12c>
	} else {
		alt_timestamp_start();
 1080228:	10818600 	call	1081860 <alt_timestamp_start>
		timeStartOnChip = alt_timestamp();
 108022c:	10819040 	call	1081904 <alt_timestamp>
 1080230:	e0bfff15 	stw	r2,-4(fp)
		// Lectura On Chip
		for (i = 0; i < PALABRAS / 16; i++) {
 1080234:	e03ffd15 	stw	zero,-12(fp)
 1080238:	00003306 	br	1080308 <main+0x118>
			dato = *buffer++;
 108023c:	e0bffc17 	ldw	r2,-16(fp)
 1080240:	10800104 	addi	r2,r2,4
 1080244:	e0bffc15 	stw	r2,-16(fp)
			dato = *buffer++;
 1080248:	e0bffc17 	ldw	r2,-16(fp)
 108024c:	10800104 	addi	r2,r2,4
 1080250:	e0bffc15 	stw	r2,-16(fp)
			dato = *buffer++;
 1080254:	e0bffc17 	ldw	r2,-16(fp)
 1080258:	10800104 	addi	r2,r2,4
 108025c:	e0bffc15 	stw	r2,-16(fp)
			dato = *buffer++;
 1080260:	e0bffc17 	ldw	r2,-16(fp)
 1080264:	10800104 	addi	r2,r2,4
 1080268:	e0bffc15 	stw	r2,-16(fp)
			dato = *buffer++;
 108026c:	e0bffc17 	ldw	r2,-16(fp)
 1080270:	10800104 	addi	r2,r2,4
 1080274:	e0bffc15 	stw	r2,-16(fp)
			dato = *buffer++;
 1080278:	e0bffc17 	ldw	r2,-16(fp)
 108027c:	10800104 	addi	r2,r2,4
 1080280:	e0bffc15 	stw	r2,-16(fp)
			dato = *buffer++;
 1080284:	e0bffc17 	ldw	r2,-16(fp)
 1080288:	10800104 	addi	r2,r2,4
 108028c:	e0bffc15 	stw	r2,-16(fp)
			dato = *buffer++;
 1080290:	e0bffc17 	ldw	r2,-16(fp)
 1080294:	10800104 	addi	r2,r2,4
 1080298:	e0bffc15 	stw	r2,-16(fp)
			dato = *buffer++;
 108029c:	e0bffc17 	ldw	r2,-16(fp)
 10802a0:	10800104 	addi	r2,r2,4
 10802a4:	e0bffc15 	stw	r2,-16(fp)
			dato = *buffer++;
 10802a8:	e0bffc17 	ldw	r2,-16(fp)
 10802ac:	10800104 	addi	r2,r2,4
 10802b0:	e0bffc15 	stw	r2,-16(fp)
			dato = *buffer++;
 10802b4:	e0bffc17 	ldw	r2,-16(fp)
 10802b8:	10800104 	addi	r2,r2,4
 10802bc:	e0bffc15 	stw	r2,-16(fp)
			dato = *buffer++;
 10802c0:	e0bffc17 	ldw	r2,-16(fp)
 10802c4:	10800104 	addi	r2,r2,4
 10802c8:	e0bffc15 	stw	r2,-16(fp)
			dato = *buffer++;
 10802cc:	e0bffc17 	ldw	r2,-16(fp)
 10802d0:	10800104 	addi	r2,r2,4
 10802d4:	e0bffc15 	stw	r2,-16(fp)
			dato = *buffer++;
 10802d8:	e0bffc17 	ldw	r2,-16(fp)
 10802dc:	10800104 	addi	r2,r2,4
 10802e0:	e0bffc15 	stw	r2,-16(fp)
			dato = *buffer++;
 10802e4:	e0bffc17 	ldw	r2,-16(fp)
 10802e8:	10800104 	addi	r2,r2,4
 10802ec:	e0bffc15 	stw	r2,-16(fp)
			dato = *buffer++;
 10802f0:	e0bffc17 	ldw	r2,-16(fp)
 10802f4:	10800104 	addi	r2,r2,4
 10802f8:	e0bffc15 	stw	r2,-16(fp)
		printf("No timestamp device available\n");
	} else {
		alt_timestamp_start();
		timeStartOnChip = alt_timestamp();
		// Lectura On Chip
		for (i = 0; i < PALABRAS / 16; i++) {
 10802fc:	e0bffd17 	ldw	r2,-12(fp)
 1080300:	10800044 	addi	r2,r2,1
 1080304:	e0bffd15 	stw	r2,-12(fp)
 1080308:	e0bffd17 	ldw	r2,-12(fp)
 108030c:	10801010 	cmplti	r2,r2,64
 1080310:	103fca1e 	bne	r2,zero,108023c <main+0x4c>
			dato = *buffer++;
			dato = *buffer++;
			dato = *buffer++;
			dato = *buffer++;
		}
		timeEndOnChip = alt_timestamp();
 1080314:	10819040 	call	1081904 <alt_timestamp>
 1080318:	e0bffe15 	stw	r2,-8(fp)
		/*for (int i = 0; i < PALABRAS; i++) {
			*buffer++ = dato;
		}*/
	}

	printf("TimeStartSRAM = %u\n", (unsigned int)timeStartOnChip);
 108031c:	01004234 	movhi	r4,264
 1080320:	210ae904 	addi	r4,r4,11172
 1080324:	e17fff17 	ldw	r5,-4(fp)
 1080328:	108060c0 	call	108060c <printf>
	printf("TimeEndSRAM = %u\n", (unsigned int)timeEndOnChip);
 108032c:	01004234 	movhi	r4,264
 1080330:	210aee04 	addi	r4,r4,11192
 1080334:	e17ffe17 	ldw	r5,-8(fp)
 1080338:	108060c0 	call	108060c <printf>
	printf("SRAM TimeEnd - TimeStart = %u\n\n", (unsigned int)timeEndOnChip - timeStartOnChip);
 108033c:	e0fffe17 	ldw	r3,-8(fp)
 1080340:	e0bfff17 	ldw	r2,-4(fp)
 1080344:	188bc83a 	sub	r5,r3,r2
 1080348:	01004234 	movhi	r4,264
 108034c:	210af304 	addi	r4,r4,11212
 1080350:	108060c0 	call	108060c <printf>

	// On Chip
	buffer = (int*)0x01108000;
 1080354:	00804474 	movhi	r2,273
 1080358:	10a00004 	addi	r2,r2,-32768
 108035c:	e0bffc15 	stw	r2,-16(fp)
	if (alt_timestamp_start() != 0) {
 1080360:	10818600 	call	1081860 <alt_timestamp_start>
 1080364:	1005003a 	cmpeq	r2,r2,zero
 1080368:	1000041e 	bne	r2,zero,108037c <main+0x18c>
		printf("No timestamp device available\n");
 108036c:	01004234 	movhi	r4,264
 1080370:	210ae104 	addi	r4,r4,11140
 1080374:	10807340 	call	1080734 <puts>
 1080378:	00003d06 	br	1080470 <main+0x280>
	} else {
		alt_timestamp_start();
 108037c:	10818600 	call	1081860 <alt_timestamp_start>
		timeStartOnChip = alt_timestamp();
 1080380:	10819040 	call	1081904 <alt_timestamp>
 1080384:	e0bfff15 	stw	r2,-4(fp)
		// Lectura On Chip
		for (i = 0; i < PALABRAS / 16; i++) {
 1080388:	e03ffd15 	stw	zero,-12(fp)
 108038c:	00003306 	br	108045c <main+0x26c>
			dato = *buffer++;
 1080390:	e0bffc17 	ldw	r2,-16(fp)
 1080394:	10800104 	addi	r2,r2,4
 1080398:	e0bffc15 	stw	r2,-16(fp)
			dato = *buffer++;
 108039c:	e0bffc17 	ldw	r2,-16(fp)
 10803a0:	10800104 	addi	r2,r2,4
 10803a4:	e0bffc15 	stw	r2,-16(fp)
			dato = *buffer++;
 10803a8:	e0bffc17 	ldw	r2,-16(fp)
 10803ac:	10800104 	addi	r2,r2,4
 10803b0:	e0bffc15 	stw	r2,-16(fp)
			dato = *buffer++;
 10803b4:	e0bffc17 	ldw	r2,-16(fp)
 10803b8:	10800104 	addi	r2,r2,4
 10803bc:	e0bffc15 	stw	r2,-16(fp)
			dato = *buffer++;
 10803c0:	e0bffc17 	ldw	r2,-16(fp)
 10803c4:	10800104 	addi	r2,r2,4
 10803c8:	e0bffc15 	stw	r2,-16(fp)
			dato = *buffer++;
 10803cc:	e0bffc17 	ldw	r2,-16(fp)
 10803d0:	10800104 	addi	r2,r2,4
 10803d4:	e0bffc15 	stw	r2,-16(fp)
			dato = *buffer++;
 10803d8:	e0bffc17 	ldw	r2,-16(fp)
 10803dc:	10800104 	addi	r2,r2,4
 10803e0:	e0bffc15 	stw	r2,-16(fp)
			dato = *buffer++;
 10803e4:	e0bffc17 	ldw	r2,-16(fp)
 10803e8:	10800104 	addi	r2,r2,4
 10803ec:	e0bffc15 	stw	r2,-16(fp)
			dato = *buffer++;
 10803f0:	e0bffc17 	ldw	r2,-16(fp)
 10803f4:	10800104 	addi	r2,r2,4
 10803f8:	e0bffc15 	stw	r2,-16(fp)
			dato = *buffer++;
 10803fc:	e0bffc17 	ldw	r2,-16(fp)
 1080400:	10800104 	addi	r2,r2,4
 1080404:	e0bffc15 	stw	r2,-16(fp)
			dato = *buffer++;
 1080408:	e0bffc17 	ldw	r2,-16(fp)
 108040c:	10800104 	addi	r2,r2,4
 1080410:	e0bffc15 	stw	r2,-16(fp)
			dato = *buffer++;
 1080414:	e0bffc17 	ldw	r2,-16(fp)
 1080418:	10800104 	addi	r2,r2,4
 108041c:	e0bffc15 	stw	r2,-16(fp)
			dato = *buffer++;
 1080420:	e0bffc17 	ldw	r2,-16(fp)
 1080424:	10800104 	addi	r2,r2,4
 1080428:	e0bffc15 	stw	r2,-16(fp)
			dato = *buffer++;
 108042c:	e0bffc17 	ldw	r2,-16(fp)
 1080430:	10800104 	addi	r2,r2,4
 1080434:	e0bffc15 	stw	r2,-16(fp)
			dato = *buffer++;
 1080438:	e0bffc17 	ldw	r2,-16(fp)
 108043c:	10800104 	addi	r2,r2,4
 1080440:	e0bffc15 	stw	r2,-16(fp)
			dato = *buffer++;
 1080444:	e0bffc17 	ldw	r2,-16(fp)
 1080448:	10800104 	addi	r2,r2,4
 108044c:	e0bffc15 	stw	r2,-16(fp)
		printf("No timestamp device available\n");
	} else {
		alt_timestamp_start();
		timeStartOnChip = alt_timestamp();
		// Lectura On Chip
		for (i = 0; i < PALABRAS / 16; i++) {
 1080450:	e0bffd17 	ldw	r2,-12(fp)
 1080454:	10800044 	addi	r2,r2,1
 1080458:	e0bffd15 	stw	r2,-12(fp)
 108045c:	e0bffd17 	ldw	r2,-12(fp)
 1080460:	10801010 	cmplti	r2,r2,64
 1080464:	103fca1e 	bne	r2,zero,1080390 <main+0x1a0>
			dato = *buffer++;
			dato = *buffer++;
			dato = *buffer++;
			dato = *buffer++;
		}
		timeEndOnChip = alt_timestamp();
 1080468:	10819040 	call	1081904 <alt_timestamp>
 108046c:	e0bffe15 	stw	r2,-8(fp)
		/*for (int i = 0; i < PALABRAS; i++) {
			*buffer++ = dato;
		}*/
	}

	printf("TimeStart= %u\n", (unsigned int)timeStartOnChip);
 1080470:	01004234 	movhi	r4,264
 1080474:	210afb04 	addi	r4,r4,11244
 1080478:	e17fff17 	ldw	r5,-4(fp)
 108047c:	108060c0 	call	108060c <printf>
	printf("TimeEnd = %u\n", (unsigned int)timeEndOnChip);
 1080480:	01004234 	movhi	r4,264
 1080484:	210aff04 	addi	r4,r4,11260
 1080488:	e17ffe17 	ldw	r5,-8(fp)
 108048c:	108060c0 	call	108060c <printf>
	printf("TimeEnd - TimeStart = %u\n\n", (unsigned int)timeEndOnChip - timeStartOnChip);
 1080490:	e0fffe17 	ldw	r3,-8(fp)
 1080494:	e0bfff17 	ldw	r2,-4(fp)
 1080498:	188bc83a 	sub	r5,r3,r2
 108049c:	01004234 	movhi	r4,264
 10804a0:	210b0304 	addi	r4,r4,11276
 10804a4:	108060c0 	call	108060c <printf>


	buffer = (int*)0x00800000;
 10804a8:	00802034 	movhi	r2,128
 10804ac:	e0bffc15 	stw	r2,-16(fp)
	if (alt_timestamp_start() != 0) {
 10804b0:	10818600 	call	1081860 <alt_timestamp_start>
 10804b4:	1005003a 	cmpeq	r2,r2,zero
 10804b8:	1000041e 	bne	r2,zero,10804cc <main+0x2dc>
		printf("No timestamp device available\n");
 10804bc:	01004234 	movhi	r4,264
 10804c0:	210ae104 	addi	r4,r4,11140
 10804c4:	10807340 	call	1080734 <puts>
 10804c8:	00003d06 	br	10805c0 <main+0x3d0>
	} else {
		alt_timestamp_start();
 10804cc:	10818600 	call	1081860 <alt_timestamp_start>
		timeStartOnChip = alt_timestamp();
 10804d0:	10819040 	call	1081904 <alt_timestamp>
 10804d4:	e0bfff15 	stw	r2,-4(fp)
		// Lectura On Chip
		for (i = 0; i < PALABRAS / 16; i++) {
 10804d8:	e03ffd15 	stw	zero,-12(fp)
 10804dc:	00003306 	br	10805ac <main+0x3bc>
			dato = *buffer++;
 10804e0:	e0bffc17 	ldw	r2,-16(fp)
 10804e4:	10800104 	addi	r2,r2,4
 10804e8:	e0bffc15 	stw	r2,-16(fp)
			dato = *buffer++;
 10804ec:	e0bffc17 	ldw	r2,-16(fp)
 10804f0:	10800104 	addi	r2,r2,4
 10804f4:	e0bffc15 	stw	r2,-16(fp)
			dato = *buffer++;
 10804f8:	e0bffc17 	ldw	r2,-16(fp)
 10804fc:	10800104 	addi	r2,r2,4
 1080500:	e0bffc15 	stw	r2,-16(fp)
			dato = *buffer++;
 1080504:	e0bffc17 	ldw	r2,-16(fp)
 1080508:	10800104 	addi	r2,r2,4
 108050c:	e0bffc15 	stw	r2,-16(fp)
			dato = *buffer++;
 1080510:	e0bffc17 	ldw	r2,-16(fp)
 1080514:	10800104 	addi	r2,r2,4
 1080518:	e0bffc15 	stw	r2,-16(fp)
			dato = *buffer++;
 108051c:	e0bffc17 	ldw	r2,-16(fp)
 1080520:	10800104 	addi	r2,r2,4
 1080524:	e0bffc15 	stw	r2,-16(fp)
			dato = *buffer++;
 1080528:	e0bffc17 	ldw	r2,-16(fp)
 108052c:	10800104 	addi	r2,r2,4
 1080530:	e0bffc15 	stw	r2,-16(fp)
			dato = *buffer++;
 1080534:	e0bffc17 	ldw	r2,-16(fp)
 1080538:	10800104 	addi	r2,r2,4
 108053c:	e0bffc15 	stw	r2,-16(fp)
			dato = *buffer++;
 1080540:	e0bffc17 	ldw	r2,-16(fp)
 1080544:	10800104 	addi	r2,r2,4
 1080548:	e0bffc15 	stw	r2,-16(fp)
			dato = *buffer++;
 108054c:	e0bffc17 	ldw	r2,-16(fp)
 1080550:	10800104 	addi	r2,r2,4
 1080554:	e0bffc15 	stw	r2,-16(fp)
			dato = *buffer++;
 1080558:	e0bffc17 	ldw	r2,-16(fp)
 108055c:	10800104 	addi	r2,r2,4
 1080560:	e0bffc15 	stw	r2,-16(fp)
			dato = *buffer++;
 1080564:	e0bffc17 	ldw	r2,-16(fp)
 1080568:	10800104 	addi	r2,r2,4
 108056c:	e0bffc15 	stw	r2,-16(fp)
			dato = *buffer++;
 1080570:	e0bffc17 	ldw	r2,-16(fp)
 1080574:	10800104 	addi	r2,r2,4
 1080578:	e0bffc15 	stw	r2,-16(fp)
			dato = *buffer++;
 108057c:	e0bffc17 	ldw	r2,-16(fp)
 1080580:	10800104 	addi	r2,r2,4
 1080584:	e0bffc15 	stw	r2,-16(fp)
			dato = *buffer++;
 1080588:	e0bffc17 	ldw	r2,-16(fp)
 108058c:	10800104 	addi	r2,r2,4
 1080590:	e0bffc15 	stw	r2,-16(fp)
			dato = *buffer++;
 1080594:	e0bffc17 	ldw	r2,-16(fp)
 1080598:	10800104 	addi	r2,r2,4
 108059c:	e0bffc15 	stw	r2,-16(fp)
		printf("No timestamp device available\n");
	} else {
		alt_timestamp_start();
		timeStartOnChip = alt_timestamp();
		// Lectura On Chip
		for (i = 0; i < PALABRAS / 16; i++) {
 10805a0:	e0bffd17 	ldw	r2,-12(fp)
 10805a4:	10800044 	addi	r2,r2,1
 10805a8:	e0bffd15 	stw	r2,-12(fp)
 10805ac:	e0bffd17 	ldw	r2,-12(fp)
 10805b0:	10801010 	cmplti	r2,r2,64
 10805b4:	103fca1e 	bne	r2,zero,10804e0 <main+0x2f0>
			dato = *buffer++;
			dato = *buffer++;
			dato = *buffer++;
			dato = *buffer++;
		}
		timeEndOnChip = alt_timestamp();
 10805b8:	10819040 	call	1081904 <alt_timestamp>
 10805bc:	e0bffe15 	stw	r2,-8(fp)
		/*for (int i = 0; i < PALABRAS; i++) {
			*buffer++ = dato;
		}*/
	}

	printf("TimeStartSDRAM = %u\n", (unsigned int)timeStartOnChip);
 10805c0:	01004234 	movhi	r4,264
 10805c4:	210b0a04 	addi	r4,r4,11304
 10805c8:	e17fff17 	ldw	r5,-4(fp)
 10805cc:	108060c0 	call	108060c <printf>
	printf("TimeEndSDRAM = %u\n", (unsigned int)timeEndOnChip);
 10805d0:	01004234 	movhi	r4,264
 10805d4:	210b1004 	addi	r4,r4,11328
 10805d8:	e17ffe17 	ldw	r5,-8(fp)
 10805dc:	108060c0 	call	108060c <printf>
	printf("SDRAM TimeEnd - TimeStart = %u\n", (unsigned int)timeEndOnChip - timeStartOnChip);
 10805e0:	e0bffe17 	ldw	r2,-8(fp)
 10805e4:	e0ffff17 	ldw	r3,-4(fp)
 10805e8:	10cbc83a 	sub	r5,r2,r3
 10805ec:	01004234 	movhi	r4,264
 10805f0:	210b1504 	addi	r4,r4,11348
 10805f4:	108060c0 	call	108060c <printf>

}
 10805f8:	e037883a 	mov	sp,fp
 10805fc:	dfc00117 	ldw	ra,4(sp)
 1080600:	df000017 	ldw	fp,0(sp)
 1080604:	dec00204 	addi	sp,sp,8
 1080608:	f800283a 	ret

0108060c <printf>:
 108060c:	defffb04 	addi	sp,sp,-20
 1080610:	dfc00115 	stw	ra,4(sp)
 1080614:	d9400215 	stw	r5,8(sp)
 1080618:	d9800315 	stw	r6,12(sp)
 108061c:	d9c00415 	stw	r7,16(sp)
 1080620:	00804234 	movhi	r2,264
 1080624:	108bd604 	addi	r2,r2,12120
 1080628:	11400017 	ldw	r5,0(r2)
 108062c:	d8800204 	addi	r2,sp,8
 1080630:	d8800015 	stw	r2,0(sp)
 1080634:	29c00217 	ldw	r7,8(r5)
 1080638:	100d883a 	mov	r6,r2
 108063c:	00804234 	movhi	r2,264
 1080640:	1083aa04 	addi	r2,r2,3752
 1080644:	200b883a 	mov	r5,r4
 1080648:	38800115 	stw	r2,4(r7)
 108064c:	3809883a 	mov	r4,r7
 1080650:	1080e840 	call	1080e84 <__vfprintf_internal>
 1080654:	dfc00117 	ldw	ra,4(sp)
 1080658:	dec00504 	addi	sp,sp,20
 108065c:	f800283a 	ret

01080660 <_printf_r>:
 1080660:	defffc04 	addi	sp,sp,-16
 1080664:	dfc00115 	stw	ra,4(sp)
 1080668:	d9800215 	stw	r6,8(sp)
 108066c:	d9c00315 	stw	r7,12(sp)
 1080670:	22000217 	ldw	r8,8(r4)
 1080674:	d8800204 	addi	r2,sp,8
 1080678:	d8800015 	stw	r2,0(sp)
 108067c:	100f883a 	mov	r7,r2
 1080680:	00804234 	movhi	r2,264
 1080684:	1083aa04 	addi	r2,r2,3752
 1080688:	280d883a 	mov	r6,r5
 108068c:	40800115 	stw	r2,4(r8)
 1080690:	400b883a 	mov	r5,r8
 1080694:	10807e80 	call	10807e8 <___vfprintf_internal_r>
 1080698:	dfc00117 	ldw	ra,4(sp)
 108069c:	dec00404 	addi	sp,sp,16
 10806a0:	f800283a 	ret

010806a4 <_puts_r>:
 10806a4:	defffd04 	addi	sp,sp,-12
 10806a8:	dc000015 	stw	r16,0(sp)
 10806ac:	2021883a 	mov	r16,r4
 10806b0:	2809883a 	mov	r4,r5
 10806b4:	dfc00215 	stw	ra,8(sp)
 10806b8:	dc400115 	stw	r17,4(sp)
 10806bc:	2823883a 	mov	r17,r5
 10806c0:	10807480 	call	1080748 <strlen>
 10806c4:	80c00217 	ldw	r3,8(r16)
 10806c8:	02004234 	movhi	r8,264
 10806cc:	4203aa04 	addi	r8,r8,3752
 10806d0:	880d883a 	mov	r6,r17
 10806d4:	100f883a 	mov	r7,r2
 10806d8:	8009883a 	mov	r4,r16
 10806dc:	180b883a 	mov	r5,r3
 10806e0:	1a000115 	stw	r8,4(r3)
 10806e4:	403ee83a 	callr	r8
 10806e8:	047fffc4 	movi	r17,-1
 10806ec:	8009883a 	mov	r4,r16
 10806f0:	01804234 	movhi	r6,264
 10806f4:	318b1d04 	addi	r6,r6,11380
 10806f8:	01c00044 	movi	r7,1
 10806fc:	1440071e 	bne	r2,r17,108071c <_puts_r+0x78>
 1080700:	00ffffc4 	movi	r3,-1
 1080704:	1805883a 	mov	r2,r3
 1080708:	dfc00217 	ldw	ra,8(sp)
 108070c:	dc400117 	ldw	r17,4(sp)
 1080710:	dc000017 	ldw	r16,0(sp)
 1080714:	dec00304 	addi	sp,sp,12
 1080718:	f800283a 	ret
 108071c:	81400217 	ldw	r5,8(r16)
 1080720:	28c00117 	ldw	r3,4(r5)
 1080724:	183ee83a 	callr	r3
 1080728:	0007883a 	mov	r3,zero
 108072c:	147ff51e 	bne	r2,r17,1080704 <_puts_r+0x60>
 1080730:	003ff306 	br	1080700 <_puts_r+0x5c>

01080734 <puts>:
 1080734:	00804234 	movhi	r2,264
 1080738:	108bd604 	addi	r2,r2,12120
 108073c:	200b883a 	mov	r5,r4
 1080740:	11000017 	ldw	r4,0(r2)
 1080744:	10806a41 	jmpi	10806a4 <_puts_r>

01080748 <strlen>:
 1080748:	20800007 	ldb	r2,0(r4)
 108074c:	10000526 	beq	r2,zero,1080764 <strlen+0x1c>
 1080750:	2007883a 	mov	r3,r4
 1080754:	18c00044 	addi	r3,r3,1
 1080758:	18800007 	ldb	r2,0(r3)
 108075c:	103ffd1e 	bne	r2,zero,1080754 <strlen+0xc>
 1080760:	1905c83a 	sub	r2,r3,r4
 1080764:	f800283a 	ret

01080768 <print_repeat>:
 1080768:	defffb04 	addi	sp,sp,-20
 108076c:	dc800315 	stw	r18,12(sp)
 1080770:	dc400215 	stw	r17,8(sp)
 1080774:	dc000115 	stw	r16,4(sp)
 1080778:	dfc00415 	stw	ra,16(sp)
 108077c:	2025883a 	mov	r18,r4
 1080780:	2823883a 	mov	r17,r5
 1080784:	3821883a 	mov	r16,r7
 1080788:	d9800005 	stb	r6,0(sp)
 108078c:	9009883a 	mov	r4,r18
 1080790:	880b883a 	mov	r5,r17
 1080794:	d80d883a 	mov	r6,sp
 1080798:	01c00044 	movi	r7,1
 108079c:	04000b0e 	bge	zero,r16,10807cc <print_repeat+0x64>
 10807a0:	88c00117 	ldw	r3,4(r17)
 10807a4:	843fffc4 	addi	r16,r16,-1
 10807a8:	183ee83a 	callr	r3
 10807ac:	103ff726 	beq	r2,zero,108078c <print_repeat+0x24>
 10807b0:	00bfffc4 	movi	r2,-1
 10807b4:	dfc00417 	ldw	ra,16(sp)
 10807b8:	dc800317 	ldw	r18,12(sp)
 10807bc:	dc400217 	ldw	r17,8(sp)
 10807c0:	dc000117 	ldw	r16,4(sp)
 10807c4:	dec00504 	addi	sp,sp,20
 10807c8:	f800283a 	ret
 10807cc:	0005883a 	mov	r2,zero
 10807d0:	dfc00417 	ldw	ra,16(sp)
 10807d4:	dc800317 	ldw	r18,12(sp)
 10807d8:	dc400217 	ldw	r17,8(sp)
 10807dc:	dc000117 	ldw	r16,4(sp)
 10807e0:	dec00504 	addi	sp,sp,20
 10807e4:	f800283a 	ret

010807e8 <___vfprintf_internal_r>:
 10807e8:	deffe304 	addi	sp,sp,-116
 10807ec:	df001b15 	stw	fp,108(sp)
 10807f0:	ddc01a15 	stw	r23,104(sp)
 10807f4:	dd001715 	stw	r20,92(sp)
 10807f8:	dc801515 	stw	r18,84(sp)
 10807fc:	dc001315 	stw	r16,76(sp)
 1080800:	dfc01c15 	stw	ra,112(sp)
 1080804:	dd801915 	stw	r22,100(sp)
 1080808:	dd401815 	stw	r21,96(sp)
 108080c:	dcc01615 	stw	r19,88(sp)
 1080810:	dc401415 	stw	r17,80(sp)
 1080814:	d9001015 	stw	r4,64(sp)
 1080818:	2829883a 	mov	r20,r5
 108081c:	d9c01115 	stw	r7,68(sp)
 1080820:	3025883a 	mov	r18,r6
 1080824:	0021883a 	mov	r16,zero
 1080828:	d8000f15 	stw	zero,60(sp)
 108082c:	d8000e15 	stw	zero,56(sp)
 1080830:	0039883a 	mov	fp,zero
 1080834:	d8000915 	stw	zero,36(sp)
 1080838:	d8000d15 	stw	zero,52(sp)
 108083c:	d8000c15 	stw	zero,48(sp)
 1080840:	d8000b15 	stw	zero,44(sp)
 1080844:	002f883a 	mov	r23,zero
 1080848:	91400003 	ldbu	r5,0(r18)
 108084c:	01c00044 	movi	r7,1
 1080850:	94800044 	addi	r18,r18,1
 1080854:	29003fcc 	andi	r4,r5,255
 1080858:	2100201c 	xori	r4,r4,128
 108085c:	213fe004 	addi	r4,r4,-128
 1080860:	20001526 	beq	r4,zero,10808b8 <___vfprintf_internal_r+0xd0>
 1080864:	81c03526 	beq	r16,r7,108093c <___vfprintf_internal_r+0x154>
 1080868:	3c002016 	blt	r7,r16,10808ec <___vfprintf_internal_r+0x104>
 108086c:	803ff61e 	bne	r16,zero,1080848 <___vfprintf_internal_r+0x60>
 1080870:	00800944 	movi	r2,37
 1080874:	2081501e 	bne	r4,r2,1080db8 <___vfprintf_internal_r+0x5d0>
 1080878:	073fffc4 	movi	fp,-1
 108087c:	00800284 	movi	r2,10
 1080880:	d9c00c15 	stw	r7,48(sp)
 1080884:	d8000f15 	stw	zero,60(sp)
 1080888:	d8000e15 	stw	zero,56(sp)
 108088c:	df000915 	stw	fp,36(sp)
 1080890:	d8800d15 	stw	r2,52(sp)
 1080894:	d8000b15 	stw	zero,44(sp)
 1080898:	91400003 	ldbu	r5,0(r18)
 108089c:	3821883a 	mov	r16,r7
 10808a0:	94800044 	addi	r18,r18,1
 10808a4:	29003fcc 	andi	r4,r5,255
 10808a8:	2100201c 	xori	r4,r4,128
 10808ac:	213fe004 	addi	r4,r4,-128
 10808b0:	01c00044 	movi	r7,1
 10808b4:	203feb1e 	bne	r4,zero,1080864 <___vfprintf_internal_r+0x7c>
 10808b8:	b805883a 	mov	r2,r23
 10808bc:	dfc01c17 	ldw	ra,112(sp)
 10808c0:	df001b17 	ldw	fp,108(sp)
 10808c4:	ddc01a17 	ldw	r23,104(sp)
 10808c8:	dd801917 	ldw	r22,100(sp)
 10808cc:	dd401817 	ldw	r21,96(sp)
 10808d0:	dd001717 	ldw	r20,92(sp)
 10808d4:	dcc01617 	ldw	r19,88(sp)
 10808d8:	dc801517 	ldw	r18,84(sp)
 10808dc:	dc401417 	ldw	r17,80(sp)
 10808e0:	dc001317 	ldw	r16,76(sp)
 10808e4:	dec01d04 	addi	sp,sp,116
 10808e8:	f800283a 	ret
 10808ec:	00800084 	movi	r2,2
 10808f0:	80801726 	beq	r16,r2,1080950 <___vfprintf_internal_r+0x168>
 10808f4:	008000c4 	movi	r2,3
 10808f8:	80bfd31e 	bne	r16,r2,1080848 <___vfprintf_internal_r+0x60>
 10808fc:	2c7ff404 	addi	r17,r5,-48
 1080900:	88c03fcc 	andi	r3,r17,255
 1080904:	00800244 	movi	r2,9
 1080908:	10c02136 	bltu	r2,r3,1080990 <___vfprintf_internal_r+0x1a8>
 108090c:	d8c00917 	ldw	r3,36(sp)
 1080910:	18012716 	blt	r3,zero,1080db0 <___vfprintf_internal_r+0x5c8>
 1080914:	d9000917 	ldw	r4,36(sp)
 1080918:	01400284 	movi	r5,10
 108091c:	10811280 	call	1081128 <__mulsi3>
 1080920:	1007883a 	mov	r3,r2
 1080924:	88803fcc 	andi	r2,r17,255
 1080928:	1080201c 	xori	r2,r2,128
 108092c:	10bfe004 	addi	r2,r2,-128
 1080930:	1887883a 	add	r3,r3,r2
 1080934:	d8c00915 	stw	r3,36(sp)
 1080938:	003fc306 	br	1080848 <___vfprintf_internal_r+0x60>
 108093c:	00800c04 	movi	r2,48
 1080940:	2080b326 	beq	r4,r2,1080c10 <___vfprintf_internal_r+0x428>
 1080944:	00800944 	movi	r2,37
 1080948:	20812726 	beq	r4,r2,1080de8 <___vfprintf_internal_r+0x600>
 108094c:	04000084 	movi	r16,2
 1080950:	2c7ff404 	addi	r17,r5,-48
 1080954:	88c03fcc 	andi	r3,r17,255
 1080958:	00800244 	movi	r2,9
 108095c:	10c00a36 	bltu	r2,r3,1080988 <___vfprintf_internal_r+0x1a0>
 1080960:	e000b416 	blt	fp,zero,1080c34 <___vfprintf_internal_r+0x44c>
 1080964:	e009883a 	mov	r4,fp
 1080968:	01400284 	movi	r5,10
 108096c:	10811280 	call	1081128 <__mulsi3>
 1080970:	1007883a 	mov	r3,r2
 1080974:	88803fcc 	andi	r2,r17,255
 1080978:	1080201c 	xori	r2,r2,128
 108097c:	10bfe004 	addi	r2,r2,-128
 1080980:	18b9883a 	add	fp,r3,r2
 1080984:	003fb006 	br	1080848 <___vfprintf_internal_r+0x60>
 1080988:	00800b84 	movi	r2,46
 108098c:	2080a326 	beq	r4,r2,1080c1c <___vfprintf_internal_r+0x434>
 1080990:	00801b04 	movi	r2,108
 1080994:	2080a326 	beq	r4,r2,1080c24 <___vfprintf_internal_r+0x43c>
 1080998:	d8c00917 	ldw	r3,36(sp)
 108099c:	1800a716 	blt	r3,zero,1080c3c <___vfprintf_internal_r+0x454>
 10809a0:	d8000f15 	stw	zero,60(sp)
 10809a4:	28bfea04 	addi	r2,r5,-88
 10809a8:	10803fcc 	andi	r2,r2,255
 10809ac:	00c00804 	movi	r3,32
 10809b0:	18802836 	bltu	r3,r2,1080a54 <___vfprintf_internal_r+0x26c>
 10809b4:	1085883a 	add	r2,r2,r2
 10809b8:	1085883a 	add	r2,r2,r2
 10809bc:	00c04234 	movhi	r3,264
 10809c0:	18c27404 	addi	r3,r3,2512
 10809c4:	10c5883a 	add	r2,r2,r3
 10809c8:	11000017 	ldw	r4,0(r2)
 10809cc:	2000683a 	jmp	r4
 10809d0:	01080a5c 	xori	r4,zero,8233
 10809d4:	01080a54 	movui	r4,8233
 10809d8:	01080a54 	movui	r4,8233
 10809dc:	01080a54 	movui	r4,8233
 10809e0:	01080a54 	movui	r4,8233
 10809e4:	01080a54 	movui	r4,8233
 10809e8:	01080a54 	movui	r4,8233
 10809ec:	01080a54 	movui	r4,8233
 10809f0:	01080a54 	movui	r4,8233
 10809f4:	01080a54 	movui	r4,8233
 10809f8:	01080a54 	movui	r4,8233
 10809fc:	01080c88 	cmpgei	r4,zero,8242
 1080a00:	01080a70 	cmpltui	r4,zero,8233
 1080a04:	01080a54 	movui	r4,8233
 1080a08:	01080a54 	movui	r4,8233
 1080a0c:	01080a54 	movui	r4,8233
 1080a10:	01080a54 	movui	r4,8233
 1080a14:	01080a70 	cmpltui	r4,zero,8233
 1080a18:	01080a54 	movui	r4,8233
 1080a1c:	01080a54 	movui	r4,8233
 1080a20:	01080a54 	movui	r4,8233
 1080a24:	01080a54 	movui	r4,8233
 1080a28:	01080a54 	movui	r4,8233
 1080a2c:	01080cf0 	cmpltui	r4,zero,8243
 1080a30:	01080a54 	movui	r4,8233
 1080a34:	01080a54 	movui	r4,8233
 1080a38:	01080a54 	movui	r4,8233
 1080a3c:	01080d00 	call	1080d0 <__alt_mem_sdram-0x6f7f30>
 1080a40:	01080a54 	movui	r4,8233
 1080a44:	01080bd4 	movui	r4,8239
 1080a48:	01080a54 	movui	r4,8233
 1080a4c:	01080a54 	movui	r4,8233
 1080a50:	01080bcc 	andi	r4,zero,8239
 1080a54:	0021883a 	mov	r16,zero
 1080a58:	003f7b06 	br	1080848 <___vfprintf_internal_r+0x60>
 1080a5c:	00c00404 	movi	r3,16
 1080a60:	00800044 	movi	r2,1
 1080a64:	d8c00d15 	stw	r3,52(sp)
 1080a68:	d8000c15 	stw	zero,48(sp)
 1080a6c:	d8800b15 	stw	r2,44(sp)
 1080a70:	d8c00e17 	ldw	r3,56(sp)
 1080a74:	1805003a 	cmpeq	r2,r3,zero
 1080a78:	10005a1e 	bne	r2,zero,1080be4 <___vfprintf_internal_r+0x3fc>
 1080a7c:	d8800c17 	ldw	r2,48(sp)
 1080a80:	1000781e 	bne	r2,zero,1080c64 <___vfprintf_internal_r+0x47c>
 1080a84:	d8801117 	ldw	r2,68(sp)
 1080a88:	d8000a15 	stw	zero,40(sp)
 1080a8c:	14400017 	ldw	r17,0(r2)
 1080a90:	11c00104 	addi	r7,r2,4
 1080a94:	d9c01115 	stw	r7,68(sp)
 1080a98:	88005a26 	beq	r17,zero,1080c04 <___vfprintf_internal_r+0x41c>
 1080a9c:	d8c00b17 	ldw	r3,44(sp)
 1080aa0:	dcc00044 	addi	r19,sp,1
 1080aa4:	05800244 	movi	r22,9
 1080aa8:	182b003a 	cmpeq	r21,r3,zero
 1080aac:	dcc01215 	stw	r19,72(sp)
 1080ab0:	00000506 	br	1080ac8 <___vfprintf_internal_r+0x2e0>
 1080ab4:	21000c04 	addi	r4,r4,48
 1080ab8:	99000005 	stb	r4,0(r19)
 1080abc:	9cc00044 	addi	r19,r19,1
 1080ac0:	80000f26 	beq	r16,zero,1080b00 <___vfprintf_internal_r+0x318>
 1080ac4:	8023883a 	mov	r17,r16
 1080ac8:	d9400d17 	ldw	r5,52(sp)
 1080acc:	8809883a 	mov	r4,r17
 1080ad0:	10811180 	call	1081118 <__udivsi3>
 1080ad4:	d9000d17 	ldw	r4,52(sp)
 1080ad8:	100b883a 	mov	r5,r2
 1080adc:	1021883a 	mov	r16,r2
 1080ae0:	10811280 	call	1081128 <__mulsi3>
 1080ae4:	8889c83a 	sub	r4,r17,r2
 1080ae8:	b13ff20e 	bge	r22,r4,1080ab4 <___vfprintf_internal_r+0x2cc>
 1080aec:	a8009f1e 	bne	r21,zero,1080d6c <___vfprintf_internal_r+0x584>
 1080af0:	21000dc4 	addi	r4,r4,55
 1080af4:	99000005 	stb	r4,0(r19)
 1080af8:	9cc00044 	addi	r19,r19,1
 1080afc:	803ff11e 	bne	r16,zero,1080ac4 <___vfprintf_internal_r+0x2dc>
 1080b00:	d8801217 	ldw	r2,72(sp)
 1080b04:	98a3c83a 	sub	r17,r19,r2
 1080b08:	d8c00917 	ldw	r3,36(sp)
 1080b0c:	1c4bc83a 	sub	r5,r3,r17
 1080b10:	0140130e 	bge	zero,r5,1080b60 <___vfprintf_internal_r+0x378>
 1080b14:	d8c00044 	addi	r3,sp,1
 1080b18:	18800804 	addi	r2,r3,32
 1080b1c:	9880102e 	bgeu	r19,r2,1080b60 <___vfprintf_internal_r+0x378>
 1080b20:	00800c04 	movi	r2,48
 1080b24:	28ffffc4 	addi	r3,r5,-1
 1080b28:	98800005 	stb	r2,0(r19)
 1080b2c:	99000044 	addi	r4,r19,1
 1080b30:	00c0080e 	bge	zero,r3,1080b54 <___vfprintf_internal_r+0x36c>
 1080b34:	d8c00044 	addi	r3,sp,1
 1080b38:	18800804 	addi	r2,r3,32
 1080b3c:	2080052e 	bgeu	r4,r2,1080b54 <___vfprintf_internal_r+0x36c>
 1080b40:	00800c04 	movi	r2,48
 1080b44:	20800005 	stb	r2,0(r4)
 1080b48:	21000044 	addi	r4,r4,1
 1080b4c:	9945883a 	add	r2,r19,r5
 1080b50:	20bff81e 	bne	r4,r2,1080b34 <___vfprintf_internal_r+0x34c>
 1080b54:	d8801217 	ldw	r2,72(sp)
 1080b58:	2027883a 	mov	r19,r4
 1080b5c:	20a3c83a 	sub	r17,r4,r2
 1080b60:	d8c00a17 	ldw	r3,40(sp)
 1080b64:	1c45883a 	add	r2,r3,r17
 1080b68:	e0a1c83a 	sub	r16,fp,r2
 1080b6c:	d8800f17 	ldw	r2,60(sp)
 1080b70:	10008026 	beq	r2,zero,1080d74 <___vfprintf_internal_r+0x58c>
 1080b74:	1805003a 	cmpeq	r2,r3,zero
 1080b78:	1000ae26 	beq	r2,zero,1080e34 <___vfprintf_internal_r+0x64c>
 1080b7c:	0400a516 	blt	zero,r16,1080e14 <___vfprintf_internal_r+0x62c>
 1080b80:	b805883a 	mov	r2,r23
 1080b84:	0440950e 	bge	zero,r17,1080ddc <___vfprintf_internal_r+0x5f4>
 1080b88:	102f883a 	mov	r23,r2
 1080b8c:	1461883a 	add	r16,r2,r17
 1080b90:	00000206 	br	1080b9c <___vfprintf_internal_r+0x3b4>
 1080b94:	bdc00044 	addi	r23,r23,1
 1080b98:	85ffae26 	beq	r16,r23,1080a54 <___vfprintf_internal_r+0x26c>
 1080b9c:	9cffffc4 	addi	r19,r19,-1
 1080ba0:	98800003 	ldbu	r2,0(r19)
 1080ba4:	a0c00117 	ldw	r3,4(r20)
 1080ba8:	d9001017 	ldw	r4,64(sp)
 1080bac:	d8800005 	stb	r2,0(sp)
 1080bb0:	a00b883a 	mov	r5,r20
 1080bb4:	d80d883a 	mov	r6,sp
 1080bb8:	01c00044 	movi	r7,1
 1080bbc:	183ee83a 	callr	r3
 1080bc0:	103ff426 	beq	r2,zero,1080b94 <___vfprintf_internal_r+0x3ac>
 1080bc4:	05ffffc4 	movi	r23,-1
 1080bc8:	003f3b06 	br	10808b8 <___vfprintf_internal_r+0xd0>
 1080bcc:	00c00404 	movi	r3,16
 1080bd0:	d8c00d15 	stw	r3,52(sp)
 1080bd4:	d8000c15 	stw	zero,48(sp)
 1080bd8:	d8c00e17 	ldw	r3,56(sp)
 1080bdc:	1805003a 	cmpeq	r2,r3,zero
 1080be0:	103fa626 	beq	r2,zero,1080a7c <___vfprintf_internal_r+0x294>
 1080be4:	d8c00c17 	ldw	r3,48(sp)
 1080be8:	1800171e 	bne	r3,zero,1080c48 <___vfprintf_internal_r+0x460>
 1080bec:	d8c01117 	ldw	r3,68(sp)
 1080bf0:	d8000a15 	stw	zero,40(sp)
 1080bf4:	1c400017 	ldw	r17,0(r3)
 1080bf8:	19c00104 	addi	r7,r3,4
 1080bfc:	d9c01115 	stw	r7,68(sp)
 1080c00:	883fa61e 	bne	r17,zero,1080a9c <___vfprintf_internal_r+0x2b4>
 1080c04:	dcc00044 	addi	r19,sp,1
 1080c08:	dcc01215 	stw	r19,72(sp)
 1080c0c:	003fbe06 	br	1080b08 <___vfprintf_internal_r+0x320>
 1080c10:	04000084 	movi	r16,2
 1080c14:	d9c00f15 	stw	r7,60(sp)
 1080c18:	003f0b06 	br	1080848 <___vfprintf_internal_r+0x60>
 1080c1c:	040000c4 	movi	r16,3
 1080c20:	003f0906 	br	1080848 <___vfprintf_internal_r+0x60>
 1080c24:	00800044 	movi	r2,1
 1080c28:	040000c4 	movi	r16,3
 1080c2c:	d8800e15 	stw	r2,56(sp)
 1080c30:	003f0506 	br	1080848 <___vfprintf_internal_r+0x60>
 1080c34:	0007883a 	mov	r3,zero
 1080c38:	003f4e06 	br	1080974 <___vfprintf_internal_r+0x18c>
 1080c3c:	00800044 	movi	r2,1
 1080c40:	d8800915 	stw	r2,36(sp)
 1080c44:	003f5706 	br	10809a4 <___vfprintf_internal_r+0x1bc>
 1080c48:	d8801117 	ldw	r2,68(sp)
 1080c4c:	14400017 	ldw	r17,0(r2)
 1080c50:	10800104 	addi	r2,r2,4
 1080c54:	d8801115 	stw	r2,68(sp)
 1080c58:	88000716 	blt	r17,zero,1080c78 <___vfprintf_internal_r+0x490>
 1080c5c:	d8000a15 	stw	zero,40(sp)
 1080c60:	003f8d06 	br	1080a98 <___vfprintf_internal_r+0x2b0>
 1080c64:	d8c01117 	ldw	r3,68(sp)
 1080c68:	1c400017 	ldw	r17,0(r3)
 1080c6c:	18c00104 	addi	r3,r3,4
 1080c70:	d8c01115 	stw	r3,68(sp)
 1080c74:	883ff90e 	bge	r17,zero,1080c5c <___vfprintf_internal_r+0x474>
 1080c78:	00800044 	movi	r2,1
 1080c7c:	0463c83a 	sub	r17,zero,r17
 1080c80:	d8800a15 	stw	r2,40(sp)
 1080c84:	003f8406 	br	1080a98 <___vfprintf_internal_r+0x2b0>
 1080c88:	04000044 	movi	r16,1
 1080c8c:	8700080e 	bge	r16,fp,1080cb0 <___vfprintf_internal_r+0x4c8>
 1080c90:	d9001017 	ldw	r4,64(sp)
 1080c94:	a00b883a 	mov	r5,r20
 1080c98:	01800804 	movi	r6,32
 1080c9c:	e1ffffc4 	addi	r7,fp,-1
 1080ca0:	10807680 	call	1080768 <print_repeat>
 1080ca4:	103fc71e 	bne	r2,zero,1080bc4 <___vfprintf_internal_r+0x3dc>
 1080ca8:	e5c5883a 	add	r2,fp,r23
 1080cac:	15ffffc4 	addi	r23,r2,-1
 1080cb0:	d8c01117 	ldw	r3,68(sp)
 1080cb4:	d9001017 	ldw	r4,64(sp)
 1080cb8:	800f883a 	mov	r7,r16
 1080cbc:	18800017 	ldw	r2,0(r3)
 1080cc0:	a0c00117 	ldw	r3,4(r20)
 1080cc4:	a00b883a 	mov	r5,r20
 1080cc8:	d8800005 	stb	r2,0(sp)
 1080ccc:	d80d883a 	mov	r6,sp
 1080cd0:	183ee83a 	callr	r3
 1080cd4:	103fbb1e 	bne	r2,zero,1080bc4 <___vfprintf_internal_r+0x3dc>
 1080cd8:	d8801117 	ldw	r2,68(sp)
 1080cdc:	bdc00044 	addi	r23,r23,1
 1080ce0:	0021883a 	mov	r16,zero
 1080ce4:	10800104 	addi	r2,r2,4
 1080ce8:	d8801115 	stw	r2,68(sp)
 1080cec:	003ed606 	br	1080848 <___vfprintf_internal_r+0x60>
 1080cf0:	00800204 	movi	r2,8
 1080cf4:	d8800d15 	stw	r2,52(sp)
 1080cf8:	d8000c15 	stw	zero,48(sp)
 1080cfc:	003fb606 	br	1080bd8 <___vfprintf_internal_r+0x3f0>
 1080d00:	d8c01117 	ldw	r3,68(sp)
 1080d04:	1cc00017 	ldw	r19,0(r3)
 1080d08:	9809883a 	mov	r4,r19
 1080d0c:	10807480 	call	1080748 <strlen>
 1080d10:	e0a1c83a 	sub	r16,fp,r2
 1080d14:	1023883a 	mov	r17,r2
 1080d18:	0400070e 	bge	zero,r16,1080d38 <___vfprintf_internal_r+0x550>
 1080d1c:	d9001017 	ldw	r4,64(sp)
 1080d20:	a00b883a 	mov	r5,r20
 1080d24:	01800804 	movi	r6,32
 1080d28:	800f883a 	mov	r7,r16
 1080d2c:	10807680 	call	1080768 <print_repeat>
 1080d30:	103fa41e 	bne	r2,zero,1080bc4 <___vfprintf_internal_r+0x3dc>
 1080d34:	bc2f883a 	add	r23,r23,r16
 1080d38:	a0c00117 	ldw	r3,4(r20)
 1080d3c:	d9001017 	ldw	r4,64(sp)
 1080d40:	980d883a 	mov	r6,r19
 1080d44:	a00b883a 	mov	r5,r20
 1080d48:	880f883a 	mov	r7,r17
 1080d4c:	183ee83a 	callr	r3
 1080d50:	103f9c1e 	bne	r2,zero,1080bc4 <___vfprintf_internal_r+0x3dc>
 1080d54:	d8801117 	ldw	r2,68(sp)
 1080d58:	bc6f883a 	add	r23,r23,r17
 1080d5c:	0021883a 	mov	r16,zero
 1080d60:	10800104 	addi	r2,r2,4
 1080d64:	d8801115 	stw	r2,68(sp)
 1080d68:	003eb706 	br	1080848 <___vfprintf_internal_r+0x60>
 1080d6c:	210015c4 	addi	r4,r4,87
 1080d70:	003f5106 	br	1080ab8 <___vfprintf_internal_r+0x2d0>
 1080d74:	04003b16 	blt	zero,r16,1080e64 <___vfprintf_internal_r+0x67c>
 1080d78:	d8c00a17 	ldw	r3,40(sp)
 1080d7c:	1805003a 	cmpeq	r2,r3,zero
 1080d80:	103f7f1e 	bne	r2,zero,1080b80 <___vfprintf_internal_r+0x398>
 1080d84:	a0c00117 	ldw	r3,4(r20)
 1080d88:	d9001017 	ldw	r4,64(sp)
 1080d8c:	00800b44 	movi	r2,45
 1080d90:	d8800005 	stb	r2,0(sp)
 1080d94:	a00b883a 	mov	r5,r20
 1080d98:	d80d883a 	mov	r6,sp
 1080d9c:	01c00044 	movi	r7,1
 1080da0:	183ee83a 	callr	r3
 1080da4:	103f871e 	bne	r2,zero,1080bc4 <___vfprintf_internal_r+0x3dc>
 1080da8:	b8800044 	addi	r2,r23,1
 1080dac:	003f7506 	br	1080b84 <___vfprintf_internal_r+0x39c>
 1080db0:	0007883a 	mov	r3,zero
 1080db4:	003edb06 	br	1080924 <___vfprintf_internal_r+0x13c>
 1080db8:	a0c00117 	ldw	r3,4(r20)
 1080dbc:	d9001017 	ldw	r4,64(sp)
 1080dc0:	d9400005 	stb	r5,0(sp)
 1080dc4:	d80d883a 	mov	r6,sp
 1080dc8:	a00b883a 	mov	r5,r20
 1080dcc:	183ee83a 	callr	r3
 1080dd0:	103f7c1e 	bne	r2,zero,1080bc4 <___vfprintf_internal_r+0x3dc>
 1080dd4:	bdc00044 	addi	r23,r23,1
 1080dd8:	003e9b06 	br	1080848 <___vfprintf_internal_r+0x60>
 1080ddc:	102f883a 	mov	r23,r2
 1080de0:	0021883a 	mov	r16,zero
 1080de4:	003e9806 	br	1080848 <___vfprintf_internal_r+0x60>
 1080de8:	a0c00117 	ldw	r3,4(r20)
 1080dec:	d9000005 	stb	r4,0(sp)
 1080df0:	d9001017 	ldw	r4,64(sp)
 1080df4:	a00b883a 	mov	r5,r20
 1080df8:	d80d883a 	mov	r6,sp
 1080dfc:	800f883a 	mov	r7,r16
 1080e00:	183ee83a 	callr	r3
 1080e04:	103f6f1e 	bne	r2,zero,1080bc4 <___vfprintf_internal_r+0x3dc>
 1080e08:	bc2f883a 	add	r23,r23,r16
 1080e0c:	0021883a 	mov	r16,zero
 1080e10:	003e8d06 	br	1080848 <___vfprintf_internal_r+0x60>
 1080e14:	d9001017 	ldw	r4,64(sp)
 1080e18:	a00b883a 	mov	r5,r20
 1080e1c:	01800c04 	movi	r6,48
 1080e20:	800f883a 	mov	r7,r16
 1080e24:	10807680 	call	1080768 <print_repeat>
 1080e28:	103f661e 	bne	r2,zero,1080bc4 <___vfprintf_internal_r+0x3dc>
 1080e2c:	bc05883a 	add	r2,r23,r16
 1080e30:	003f5406 	br	1080b84 <___vfprintf_internal_r+0x39c>
 1080e34:	a0c00117 	ldw	r3,4(r20)
 1080e38:	d9001017 	ldw	r4,64(sp)
 1080e3c:	00800b44 	movi	r2,45
 1080e40:	d8800005 	stb	r2,0(sp)
 1080e44:	a00b883a 	mov	r5,r20
 1080e48:	d80d883a 	mov	r6,sp
 1080e4c:	01c00044 	movi	r7,1
 1080e50:	183ee83a 	callr	r3
 1080e54:	103f5b1e 	bne	r2,zero,1080bc4 <___vfprintf_internal_r+0x3dc>
 1080e58:	bdc00044 	addi	r23,r23,1
 1080e5c:	043f480e 	bge	zero,r16,1080b80 <___vfprintf_internal_r+0x398>
 1080e60:	003fec06 	br	1080e14 <___vfprintf_internal_r+0x62c>
 1080e64:	d9001017 	ldw	r4,64(sp)
 1080e68:	a00b883a 	mov	r5,r20
 1080e6c:	01800804 	movi	r6,32
 1080e70:	800f883a 	mov	r7,r16
 1080e74:	10807680 	call	1080768 <print_repeat>
 1080e78:	103f521e 	bne	r2,zero,1080bc4 <___vfprintf_internal_r+0x3dc>
 1080e7c:	bc2f883a 	add	r23,r23,r16
 1080e80:	003fbd06 	br	1080d78 <___vfprintf_internal_r+0x590>

01080e84 <__vfprintf_internal>:
 1080e84:	00804234 	movhi	r2,264
 1080e88:	108bd604 	addi	r2,r2,12120
 1080e8c:	2013883a 	mov	r9,r4
 1080e90:	11000017 	ldw	r4,0(r2)
 1080e94:	2805883a 	mov	r2,r5
 1080e98:	300f883a 	mov	r7,r6
 1080e9c:	480b883a 	mov	r5,r9
 1080ea0:	100d883a 	mov	r6,r2
 1080ea4:	10807e81 	jmpi	10807e8 <___vfprintf_internal_r>

01080ea8 <__sfvwrite_small_dev>:
 1080ea8:	2880000b 	ldhu	r2,0(r5)
 1080eac:	defffa04 	addi	sp,sp,-24
 1080eb0:	dcc00315 	stw	r19,12(sp)
 1080eb4:	1080020c 	andi	r2,r2,8
 1080eb8:	dc800215 	stw	r18,8(sp)
 1080ebc:	dc400115 	stw	r17,4(sp)
 1080ec0:	dfc00515 	stw	ra,20(sp)
 1080ec4:	dd000415 	stw	r20,16(sp)
 1080ec8:	dc000015 	stw	r16,0(sp)
 1080ecc:	2825883a 	mov	r18,r5
 1080ed0:	2027883a 	mov	r19,r4
 1080ed4:	3023883a 	mov	r17,r6
 1080ed8:	10002026 	beq	r2,zero,1080f5c <__sfvwrite_small_dev+0xb4>
 1080edc:	2940008f 	ldh	r5,2(r5)
 1080ee0:	28000f16 	blt	r5,zero,1080f20 <__sfvwrite_small_dev+0x78>
 1080ee4:	01c01b0e 	bge	zero,r7,1080f54 <__sfvwrite_small_dev+0xac>
 1080ee8:	3821883a 	mov	r16,r7
 1080eec:	05010004 	movi	r20,1024
 1080ef0:	00000206 	br	1080efc <__sfvwrite_small_dev+0x54>
 1080ef4:	0400170e 	bge	zero,r16,1080f54 <__sfvwrite_small_dev+0xac>
 1080ef8:	9140008f 	ldh	r5,2(r18)
 1080efc:	880d883a 	mov	r6,r17
 1080f00:	9809883a 	mov	r4,r19
 1080f04:	800f883a 	mov	r7,r16
 1080f08:	a400010e 	bge	r20,r16,1080f10 <__sfvwrite_small_dev+0x68>
 1080f0c:	01c10004 	movi	r7,1024
 1080f10:	1080f640 	call	1080f64 <_write_r>
 1080f14:	88a3883a 	add	r17,r17,r2
 1080f18:	80a1c83a 	sub	r16,r16,r2
 1080f1c:	00bff516 	blt	zero,r2,1080ef4 <__sfvwrite_small_dev+0x4c>
 1080f20:	9080000b 	ldhu	r2,0(r18)
 1080f24:	00ffffc4 	movi	r3,-1
 1080f28:	10801014 	ori	r2,r2,64
 1080f2c:	9080000d 	sth	r2,0(r18)
 1080f30:	1805883a 	mov	r2,r3
 1080f34:	dfc00517 	ldw	ra,20(sp)
 1080f38:	dd000417 	ldw	r20,16(sp)
 1080f3c:	dcc00317 	ldw	r19,12(sp)
 1080f40:	dc800217 	ldw	r18,8(sp)
 1080f44:	dc400117 	ldw	r17,4(sp)
 1080f48:	dc000017 	ldw	r16,0(sp)
 1080f4c:	dec00604 	addi	sp,sp,24
 1080f50:	f800283a 	ret
 1080f54:	0007883a 	mov	r3,zero
 1080f58:	003ff506 	br	1080f30 <__sfvwrite_small_dev+0x88>
 1080f5c:	00ffffc4 	movi	r3,-1
 1080f60:	003ff306 	br	1080f30 <__sfvwrite_small_dev+0x88>

01080f64 <_write_r>:
 1080f64:	defffd04 	addi	sp,sp,-12
 1080f68:	dc000015 	stw	r16,0(sp)
 1080f6c:	04004234 	movhi	r16,264
 1080f70:	840c9904 	addi	r16,r16,12900
 1080f74:	dc400115 	stw	r17,4(sp)
 1080f78:	80000015 	stw	zero,0(r16)
 1080f7c:	2023883a 	mov	r17,r4
 1080f80:	2809883a 	mov	r4,r5
 1080f84:	300b883a 	mov	r5,r6
 1080f88:	380d883a 	mov	r6,r7
 1080f8c:	dfc00215 	stw	ra,8(sp)
 1080f90:	10812a80 	call	10812a8 <write>
 1080f94:	1007883a 	mov	r3,r2
 1080f98:	00bfffc4 	movi	r2,-1
 1080f9c:	18800626 	beq	r3,r2,1080fb8 <_write_r+0x54>
 1080fa0:	1805883a 	mov	r2,r3
 1080fa4:	dfc00217 	ldw	ra,8(sp)
 1080fa8:	dc400117 	ldw	r17,4(sp)
 1080fac:	dc000017 	ldw	r16,0(sp)
 1080fb0:	dec00304 	addi	sp,sp,12
 1080fb4:	f800283a 	ret
 1080fb8:	80800017 	ldw	r2,0(r16)
 1080fbc:	103ff826 	beq	r2,zero,1080fa0 <_write_r+0x3c>
 1080fc0:	88800015 	stw	r2,0(r17)
 1080fc4:	1805883a 	mov	r2,r3
 1080fc8:	dfc00217 	ldw	ra,8(sp)
 1080fcc:	dc400117 	ldw	r17,4(sp)
 1080fd0:	dc000017 	ldw	r16,0(sp)
 1080fd4:	dec00304 	addi	sp,sp,12
 1080fd8:	f800283a 	ret

01080fdc <udivmodsi4>:
 1080fdc:	29001b2e 	bgeu	r5,r4,108104c <udivmodsi4+0x70>
 1080fe0:	28001a16 	blt	r5,zero,108104c <udivmodsi4+0x70>
 1080fe4:	00800044 	movi	r2,1
 1080fe8:	0007883a 	mov	r3,zero
 1080fec:	01c007c4 	movi	r7,31
 1080ff0:	00000306 	br	1081000 <udivmodsi4+0x24>
 1080ff4:	19c01326 	beq	r3,r7,1081044 <udivmodsi4+0x68>
 1080ff8:	18c00044 	addi	r3,r3,1
 1080ffc:	28000416 	blt	r5,zero,1081010 <udivmodsi4+0x34>
 1081000:	294b883a 	add	r5,r5,r5
 1081004:	1085883a 	add	r2,r2,r2
 1081008:	293ffa36 	bltu	r5,r4,1080ff4 <udivmodsi4+0x18>
 108100c:	10000d26 	beq	r2,zero,1081044 <udivmodsi4+0x68>
 1081010:	0007883a 	mov	r3,zero
 1081014:	21400236 	bltu	r4,r5,1081020 <udivmodsi4+0x44>
 1081018:	2149c83a 	sub	r4,r4,r5
 108101c:	1886b03a 	or	r3,r3,r2
 1081020:	1004d07a 	srli	r2,r2,1
 1081024:	280ad07a 	srli	r5,r5,1
 1081028:	103ffa1e 	bne	r2,zero,1081014 <udivmodsi4+0x38>
 108102c:	30000226 	beq	r6,zero,1081038 <udivmodsi4+0x5c>
 1081030:	2005883a 	mov	r2,r4
 1081034:	f800283a 	ret
 1081038:	1809883a 	mov	r4,r3
 108103c:	2005883a 	mov	r2,r4
 1081040:	f800283a 	ret
 1081044:	0007883a 	mov	r3,zero
 1081048:	003ff806 	br	108102c <udivmodsi4+0x50>
 108104c:	00800044 	movi	r2,1
 1081050:	0007883a 	mov	r3,zero
 1081054:	003fef06 	br	1081014 <udivmodsi4+0x38>

01081058 <__divsi3>:
 1081058:	defffe04 	addi	sp,sp,-8
 108105c:	dc000015 	stw	r16,0(sp)
 1081060:	dfc00115 	stw	ra,4(sp)
 1081064:	0021883a 	mov	r16,zero
 1081068:	20000c16 	blt	r4,zero,108109c <__divsi3+0x44>
 108106c:	000d883a 	mov	r6,zero
 1081070:	28000e16 	blt	r5,zero,10810ac <__divsi3+0x54>
 1081074:	1080fdc0 	call	1080fdc <udivmodsi4>
 1081078:	1007883a 	mov	r3,r2
 108107c:	8005003a 	cmpeq	r2,r16,zero
 1081080:	1000011e 	bne	r2,zero,1081088 <__divsi3+0x30>
 1081084:	00c7c83a 	sub	r3,zero,r3
 1081088:	1805883a 	mov	r2,r3
 108108c:	dfc00117 	ldw	ra,4(sp)
 1081090:	dc000017 	ldw	r16,0(sp)
 1081094:	dec00204 	addi	sp,sp,8
 1081098:	f800283a 	ret
 108109c:	0109c83a 	sub	r4,zero,r4
 10810a0:	04000044 	movi	r16,1
 10810a4:	000d883a 	mov	r6,zero
 10810a8:	283ff20e 	bge	r5,zero,1081074 <__divsi3+0x1c>
 10810ac:	014bc83a 	sub	r5,zero,r5
 10810b0:	8021003a 	cmpeq	r16,r16,zero
 10810b4:	003fef06 	br	1081074 <__divsi3+0x1c>

010810b8 <__modsi3>:
 10810b8:	deffff04 	addi	sp,sp,-4
 10810bc:	dfc00015 	stw	ra,0(sp)
 10810c0:	01800044 	movi	r6,1
 10810c4:	2807883a 	mov	r3,r5
 10810c8:	20000416 	blt	r4,zero,10810dc <__modsi3+0x24>
 10810cc:	28000c16 	blt	r5,zero,1081100 <__modsi3+0x48>
 10810d0:	dfc00017 	ldw	ra,0(sp)
 10810d4:	dec00104 	addi	sp,sp,4
 10810d8:	1080fdc1 	jmpi	1080fdc <udivmodsi4>
 10810dc:	0109c83a 	sub	r4,zero,r4
 10810e0:	28000b16 	blt	r5,zero,1081110 <__modsi3+0x58>
 10810e4:	180b883a 	mov	r5,r3
 10810e8:	01800044 	movi	r6,1
 10810ec:	1080fdc0 	call	1080fdc <udivmodsi4>
 10810f0:	0085c83a 	sub	r2,zero,r2
 10810f4:	dfc00017 	ldw	ra,0(sp)
 10810f8:	dec00104 	addi	sp,sp,4
 10810fc:	f800283a 	ret
 1081100:	014bc83a 	sub	r5,zero,r5
 1081104:	dfc00017 	ldw	ra,0(sp)
 1081108:	dec00104 	addi	sp,sp,4
 108110c:	1080fdc1 	jmpi	1080fdc <udivmodsi4>
 1081110:	0147c83a 	sub	r3,zero,r5
 1081114:	003ff306 	br	10810e4 <__modsi3+0x2c>

01081118 <__udivsi3>:
 1081118:	000d883a 	mov	r6,zero
 108111c:	1080fdc1 	jmpi	1080fdc <udivmodsi4>

01081120 <__umodsi3>:
 1081120:	01800044 	movi	r6,1
 1081124:	1080fdc1 	jmpi	1080fdc <udivmodsi4>

01081128 <__mulsi3>:
 1081128:	20000a26 	beq	r4,zero,1081154 <__mulsi3+0x2c>
 108112c:	0007883a 	mov	r3,zero
 1081130:	2080004c 	andi	r2,r4,1
 1081134:	1005003a 	cmpeq	r2,r2,zero
 1081138:	2008d07a 	srli	r4,r4,1
 108113c:	1000011e 	bne	r2,zero,1081144 <__mulsi3+0x1c>
 1081140:	1947883a 	add	r3,r3,r5
 1081144:	294b883a 	add	r5,r5,r5
 1081148:	203ff91e 	bne	r4,zero,1081130 <__mulsi3+0x8>
 108114c:	1805883a 	mov	r2,r3
 1081150:	f800283a 	ret
 1081154:	0007883a 	mov	r3,zero
 1081158:	1805883a 	mov	r2,r3
 108115c:	f800283a 	ret

01081160 <alt_load>:
 * there is no bootloader, so this application is responsible for loading to
 * RAM any sections that are required.
 */  

void alt_load (void)
{
 1081160:	defffe04 	addi	sp,sp,-8
 1081164:	dfc00115 	stw	ra,4(sp)
 1081168:	df000015 	stw	fp,0(sp)
 108116c:	d839883a 	mov	fp,sp
  /* 
   * Copy the .rwdata section. 
   */

  alt_load_section (&__flash_rwdata_start, 
 1081170:	01004234 	movhi	r4,264
 1081174:	210be104 	addi	r4,r4,12164
 1081178:	01404234 	movhi	r5,264
 108117c:	294b2904 	addi	r5,r5,11428
 1081180:	01804234 	movhi	r6,264
 1081184:	318be104 	addi	r6,r6,12164
 1081188:	10811e00 	call	10811e0 <alt_load_section>

  /*
   * Copy the exception handler.
   */

  alt_load_section (&__flash_exceptions_start, 
 108118c:	01004234 	movhi	r4,264
 1081190:	21000804 	addi	r4,r4,32
 1081194:	01404234 	movhi	r5,264
 1081198:	29400804 	addi	r5,r5,32
 108119c:	01804234 	movhi	r6,264
 10811a0:	31806d04 	addi	r6,r6,436
 10811a4:	10811e00 	call	10811e0 <alt_load_section>

  /*
   * Copy the .rodata section.
   */

  alt_load_section (&__flash_rodata_start, 
 10811a8:	01004234 	movhi	r4,264
 10811ac:	210ae104 	addi	r4,r4,11140
 10811b0:	01404234 	movhi	r5,264
 10811b4:	294ae104 	addi	r5,r5,11140
 10811b8:	01804234 	movhi	r6,264
 10811bc:	318b2904 	addi	r6,r6,11428
 10811c0:	10811e00 	call	10811e0 <alt_load_section>
  
  /*
   * Now ensure that the caches are in synch.
   */
  
  alt_dcache_flush_all();
 10811c4:	1081b280 	call	1081b28 <alt_dcache_flush_all>
  alt_icache_flush_all();
 10811c8:	1081c840 	call	1081c84 <alt_icache_flush_all>
}
 10811cc:	e037883a 	mov	sp,fp
 10811d0:	dfc00117 	ldw	ra,4(sp)
 10811d4:	df000017 	ldw	fp,0(sp)
 10811d8:	dec00204 	addi	sp,sp,8
 10811dc:	f800283a 	ret

010811e0 <alt_load_section>:
 */

static void ALT_INLINE alt_load_section (alt_u32* from, 
                                         alt_u32* to, 
                                         alt_u32* end)
{
 10811e0:	defffc04 	addi	sp,sp,-16
 10811e4:	df000315 	stw	fp,12(sp)
 10811e8:	df000304 	addi	fp,sp,12
 10811ec:	e13ffd15 	stw	r4,-12(fp)
 10811f0:	e17ffe15 	stw	r5,-8(fp)
 10811f4:	e1bfff15 	stw	r6,-4(fp)
  if (to != from)
 10811f8:	e0fffe17 	ldw	r3,-8(fp)
 10811fc:	e0bffd17 	ldw	r2,-12(fp)
 1081200:	18800e26 	beq	r3,r2,108123c <alt_load_section+0x5c>
  {
    while( to != end )
 1081204:	00000a06 	br	1081230 <alt_load_section+0x50>
    {
      *to++ = *from++;
 1081208:	e0bffd17 	ldw	r2,-12(fp)
 108120c:	10c00017 	ldw	r3,0(r2)
 1081210:	e0bffe17 	ldw	r2,-8(fp)
 1081214:	10c00015 	stw	r3,0(r2)
 1081218:	e0bffe17 	ldw	r2,-8(fp)
 108121c:	10800104 	addi	r2,r2,4
 1081220:	e0bffe15 	stw	r2,-8(fp)
 1081224:	e0bffd17 	ldw	r2,-12(fp)
 1081228:	10800104 	addi	r2,r2,4
 108122c:	e0bffd15 	stw	r2,-12(fp)
                                         alt_u32* to, 
                                         alt_u32* end)
{
  if (to != from)
  {
    while( to != end )
 1081230:	e0fffe17 	ldw	r3,-8(fp)
 1081234:	e0bfff17 	ldw	r2,-4(fp)
 1081238:	18bff31e 	bne	r3,r2,1081208 <alt_load_section+0x28>
    {
      *to++ = *from++;
    }
  }
}
 108123c:	e037883a 	mov	sp,fp
 1081240:	df000017 	ldw	fp,0(sp)
 1081244:	dec00104 	addi	sp,sp,4
 1081248:	f800283a 	ret

0108124c <alt_main>:
 * devices/filesystems/components in the system; and call the entry point for
 * the users application, i.e. main().
 */

void alt_main (void)
{
 108124c:	defffd04 	addi	sp,sp,-12
 1081250:	dfc00215 	stw	ra,8(sp)
 1081254:	df000115 	stw	fp,4(sp)
 1081258:	df000104 	addi	fp,sp,4
#endif

  /* ALT LOG - please see HAL/sys/alt_log_printf.h for details */
  ALT_LOG_PRINT_BOOT("[alt_main.c] Entering alt_main, calling alt_irq_init.\r\n");
  /* Initialize the interrupt controller. */
  alt_irq_init (NULL);
 108125c:	0009883a 	mov	r4,zero
 1081260:	108142c0 	call	108142c <alt_irq_init>
  ALT_LOG_PRINT_BOOT("[alt_main.c] Done OS Init, calling alt_sem_create.\r\n");
  ALT_SEM_CREATE (&alt_fd_list_lock, 1);

  /* Initialize the device drivers/software components. */
  ALT_LOG_PRINT_BOOT("[alt_main.c] Calling alt_sys_init.\r\n");
  alt_sys_init();
 1081264:	10814600 	call	1081460 <alt_sys_init>
   * devices be present (not equal to /dev/null) and if direct drivers
   * aren't being used.
   */

    ALT_LOG_PRINT_BOOT("[alt_main.c] Redirecting IO.\r\n");
    alt_io_redirect(ALT_STDOUT, ALT_STDIN, ALT_STDERR);
 1081268:	01004234 	movhi	r4,264
 108126c:	210b1e04 	addi	r4,r4,11384
 1081270:	01404234 	movhi	r5,264
 1081274:	294b1e04 	addi	r5,r5,11384
 1081278:	01804234 	movhi	r6,264
 108127c:	318b1e04 	addi	r6,r6,11384
 1081280:	10820580 	call	1082058 <alt_io_redirect>
  ALT_LOG_PRINT_BOOT("[alt_main.c] Calling main.\r\n");

#ifdef ALT_NO_EXIT
  main (alt_argc, alt_argv, alt_envp);
#else
  result = main (alt_argc, alt_argv, alt_envp);
 1081284:	d120c417 	ldw	r4,-31984(gp)
 1081288:	d160c517 	ldw	r5,-31980(gp)
 108128c:	d1a0c617 	ldw	r6,-31976(gp)
 1081290:	10801f00 	call	10801f0 <main>
 1081294:	e0bfff15 	stw	r2,-4(fp)
  close(STDOUT_FILENO);
 1081298:	01000044 	movi	r4,1
 108129c:	10819c80 	call	10819c8 <close>
  exit (result);
 10812a0:	e13fff17 	ldw	r4,-4(fp)
 10812a4:	10829040 	call	1082904 <exit>

010812a8 <write>:
}

#else /* !ALT_USE_DIRECT_DRIVERS */

int ALT_WRITE (int file, const void *ptr, size_t len)
{
 10812a8:	defff704 	addi	sp,sp,-36
 10812ac:	dfc00815 	stw	ra,32(sp)
 10812b0:	df000715 	stw	fp,28(sp)
 10812b4:	df000704 	addi	fp,sp,28
 10812b8:	e13ffb15 	stw	r4,-20(fp)
 10812bc:	e17ffc15 	stw	r5,-16(fp)
 10812c0:	e1bffd15 	stw	r6,-12(fp)
   * A common error case is that when the file descriptor was created, the call
   * to open() failed resulting in a negative file descriptor. This is trapped
   * below so that we don't try and process an invalid file descriptor.
   */

  fd = (file < 0) ? NULL : &alt_fd_list[file];
 10812c4:	e0bffb17 	ldw	r2,-20(fp)
 10812c8:	1004803a 	cmplt	r2,r2,zero
 10812cc:	1000091e 	bne	r2,zero,10812f4 <write+0x4c>
 10812d0:	e13ffb17 	ldw	r4,-20(fp)
 10812d4:	01400304 	movi	r5,12
 10812d8:	10811280 	call	1081128 <__mulsi3>
 10812dc:	1007883a 	mov	r3,r2
 10812e0:	00804234 	movhi	r2,264
 10812e4:	108b7604 	addi	r2,r2,11736
 10812e8:	1887883a 	add	r3,r3,r2
 10812ec:	e0ffff15 	stw	r3,-4(fp)
 10812f0:	00000106 	br	10812f8 <write+0x50>
 10812f4:	e03fff15 	stw	zero,-4(fp)
 10812f8:	e0bfff17 	ldw	r2,-4(fp)
 10812fc:	e0bffa15 	stw	r2,-24(fp)
  
  if (fd)
 1081300:	e0bffa17 	ldw	r2,-24(fp)
 1081304:	1005003a 	cmpeq	r2,r2,zero
 1081308:	1000241e 	bne	r2,zero,108139c <write+0xf4>
     * If the file has not been opened with write access, or if the driver does
     * not provide an implementation of write(), generate an error. Otherwise
     * call the drivers write() function to process the request.
     */

    if (((fd->fd_flags & O_ACCMODE) != O_RDONLY) && fd->dev->write)
 108130c:	e0bffa17 	ldw	r2,-24(fp)
 1081310:	10800217 	ldw	r2,8(r2)
 1081314:	108000cc 	andi	r2,r2,3
 1081318:	1005003a 	cmpeq	r2,r2,zero
 108131c:	10001a1e 	bne	r2,zero,1081388 <write+0xe0>
 1081320:	e0bffa17 	ldw	r2,-24(fp)
 1081324:	10800017 	ldw	r2,0(r2)
 1081328:	10800617 	ldw	r2,24(r2)
 108132c:	1005003a 	cmpeq	r2,r2,zero
 1081330:	1000151e 	bne	r2,zero,1081388 <write+0xe0>
    {
      
      /* ALT_LOG - see altera_hal/HAL/inc/sys/alt_log_printf.h */
      ALT_LOG_WRITE_FUNCTION(ptr,len);

      if ((rval = fd->dev->write(fd, ptr, len)) < 0)
 1081334:	e0bffa17 	ldw	r2,-24(fp)
 1081338:	10800017 	ldw	r2,0(r2)
 108133c:	10800617 	ldw	r2,24(r2)
 1081340:	e17ffc17 	ldw	r5,-16(fp)
 1081344:	e1bffd17 	ldw	r6,-12(fp)
 1081348:	e13ffa17 	ldw	r4,-24(fp)
 108134c:	103ee83a 	callr	r2
 1081350:	e0bff915 	stw	r2,-28(fp)
 1081354:	e0bff917 	ldw	r2,-28(fp)
 1081358:	1004403a 	cmpge	r2,r2,zero
 108135c:	1000071e 	bne	r2,zero,108137c <write+0xd4>
      {
        ALT_ERRNO = -rval;
 1081360:	10813cc0 	call	10813cc <alt_get_errno>
 1081364:	e0fff917 	ldw	r3,-28(fp)
 1081368:	00c7c83a 	sub	r3,zero,r3
 108136c:	10c00015 	stw	r3,0(r2)
        return -1;
 1081370:	00bfffc4 	movi	r2,-1
 1081374:	e0bffe15 	stw	r2,-8(fp)
 1081378:	00000e06 	br	10813b4 <write+0x10c>
      }
      return rval;
 108137c:	e0bff917 	ldw	r2,-28(fp)
 1081380:	e0bffe15 	stw	r2,-8(fp)
 1081384:	00000b06 	br	10813b4 <write+0x10c>
    }
    else
    {
      ALT_ERRNO = EACCES;
 1081388:	10813cc0 	call	10813cc <alt_get_errno>
 108138c:	1007883a 	mov	r3,r2
 1081390:	00800344 	movi	r2,13
 1081394:	18800015 	stw	r2,0(r3)
 1081398:	00000406 	br	10813ac <write+0x104>
    }
  }
  else  
  {
    ALT_ERRNO = EBADFD;
 108139c:	10813cc0 	call	10813cc <alt_get_errno>
 10813a0:	1007883a 	mov	r3,r2
 10813a4:	00801444 	movi	r2,81
 10813a8:	18800015 	stw	r2,0(r3)
  }
  return -1;
 10813ac:	00bfffc4 	movi	r2,-1
 10813b0:	e0bffe15 	stw	r2,-8(fp)
 10813b4:	e0bffe17 	ldw	r2,-8(fp)
}
 10813b8:	e037883a 	mov	sp,fp
 10813bc:	dfc00117 	ldw	ra,4(sp)
 10813c0:	df000017 	ldw	fp,0(sp)
 10813c4:	dec00204 	addi	sp,sp,8
 10813c8:	f800283a 	ret

010813cc <alt_get_errno>:
#undef errno

extern int errno;

static ALT_INLINE int* alt_get_errno(void)
{
 10813cc:	defffd04 	addi	sp,sp,-12
 10813d0:	dfc00215 	stw	ra,8(sp)
 10813d4:	df000115 	stw	fp,4(sp)
 10813d8:	df000104 	addi	fp,sp,4
  return ((alt_errno) ? alt_errno() : &errno);
 10813dc:	00804234 	movhi	r2,264
 10813e0:	108bdd04 	addi	r2,r2,12148
 10813e4:	10800017 	ldw	r2,0(r2)
 10813e8:	1005003a 	cmpeq	r2,r2,zero
 10813ec:	1000061e 	bne	r2,zero,1081408 <alt_get_errno+0x3c>
 10813f0:	00804234 	movhi	r2,264
 10813f4:	108bdd04 	addi	r2,r2,12148
 10813f8:	10800017 	ldw	r2,0(r2)
 10813fc:	103ee83a 	callr	r2
 1081400:	e0bfff15 	stw	r2,-4(fp)
 1081404:	00000306 	br	1081414 <alt_get_errno+0x48>
 1081408:	00804234 	movhi	r2,264
 108140c:	108c9904 	addi	r2,r2,12900
 1081410:	e0bfff15 	stw	r2,-4(fp)
 1081414:	e0bfff17 	ldw	r2,-4(fp)
}
 1081418:	e037883a 	mov	sp,fp
 108141c:	dfc00117 	ldw	ra,4(sp)
 1081420:	df000017 	ldw	fp,0(sp)
 1081424:	dec00204 	addi	sp,sp,8
 1081428:	f800283a 	ret

0108142c <alt_irq_init>:
 * The "base" parameter is ignored and only
 * present for backwards-compatibility.
 */

void alt_irq_init ( const void* base )
{
 108142c:	defffd04 	addi	sp,sp,-12
 1081430:	dfc00215 	stw	ra,8(sp)
 1081434:	df000115 	stw	fp,4(sp)
 1081438:	df000104 	addi	fp,sp,4
 108143c:	e13fff15 	stw	r4,-4(fp)
    ALTERA_NIOS2_QSYS_IRQ_INIT ( CPU, cpu);
 1081440:	10825d00 	call	10825d0 <altera_nios2_qsys_irq_init>
 * alt_irq_cpu_enable_interrupts() enables the CPU to start taking interrupts.
 */
static ALT_INLINE void ALT_ALWAYS_INLINE 
       alt_irq_cpu_enable_interrupts ()
{
    NIOS2_WRITE_STATUS(NIOS2_STATUS_PIE_MSK
 1081444:	00800044 	movi	r2,1
 1081448:	1001703a 	wrctl	status,r2
    alt_irq_cpu_enable_interrupts();
}
 108144c:	e037883a 	mov	sp,fp
 1081450:	dfc00117 	ldw	ra,4(sp)
 1081454:	df000017 	ldw	fp,0(sp)
 1081458:	dec00204 	addi	sp,sp,8
 108145c:	f800283a 	ret

01081460 <alt_sys_init>:
 * Initialize the non-interrupt controller devices.
 * Called after alt_irq_init().
 */

void alt_sys_init( void )
{
 1081460:	defffe04 	addi	sp,sp,-8
 1081464:	dfc00115 	stw	ra,4(sp)
 1081468:	df000015 	stw	fp,0(sp)
 108146c:	d839883a 	mov	fp,sp
    ALTERA_AVALON_TIMER_INIT ( SYS_CLK_TIMER, sys_clk_timer);
 1081470:	01004474 	movhi	r4,273
 1081474:	21040804 	addi	r4,r4,4128
 1081478:	000b883a 	mov	r5,zero
 108147c:	01800044 	movi	r6,1
 1081480:	01c0fa04 	movi	r7,1000
 1081484:	10817d00 	call	10817d0 <alt_avalon_timer_sc_init>
    ALTERA_AVALON_TIMER_INIT ( TIMER, timer);
 1081488:	00c04234 	movhi	r3,264
 108148c:	18cc9d04 	addi	r3,r3,12916
 1081490:	00804474 	movhi	r2,273
 1081494:	10840004 	addi	r2,r2,4096
 1081498:	18800015 	stw	r2,0(r3)
 108149c:	00c04234 	movhi	r3,264
 10814a0:	18cc9e04 	addi	r3,r3,12920
 10814a4:	0080bef4 	movhi	r2,763
 10814a8:	10bc2004 	addi	r2,r2,-3968
 10814ac:	18800015 	stw	r2,0(r3)
    ALTERA_AVALON_JTAG_UART_INIT ( JTAG_UART, jtag_uart);
 10814b0:	01004234 	movhi	r4,264
 10814b4:	210b6104 	addi	r4,r4,11652
 10814b8:	10814d00 	call	10814d0 <alt_dev_reg>
    ALTERA_AVALON_SYSID_QSYS_INIT ( SYSID, sysid);
}
 10814bc:	e037883a 	mov	sp,fp
 10814c0:	dfc00117 	ldw	ra,4(sp)
 10814c4:	df000017 	ldw	fp,0(sp)
 10814c8:	dec00204 	addi	sp,sp,8
 10814cc:	f800283a 	ret

010814d0 <alt_dev_reg>:
 */

extern int alt_fs_reg  (alt_dev* dev); 

static ALT_INLINE int alt_dev_reg (alt_dev* dev)
{
 10814d0:	defffd04 	addi	sp,sp,-12
 10814d4:	dfc00215 	stw	ra,8(sp)
 10814d8:	df000115 	stw	fp,4(sp)
 10814dc:	df000104 	addi	fp,sp,4
 10814e0:	e13fff15 	stw	r4,-4(fp)
  extern alt_llist alt_dev_list;

  return alt_dev_llist_insert ((alt_dev_llist*) dev, &alt_dev_list);
 10814e4:	e13fff17 	ldw	r4,-4(fp)
 10814e8:	01404234 	movhi	r5,264
 10814ec:	294bda04 	addi	r5,r5,12136
 10814f0:	1081b700 	call	1081b70 <alt_dev_llist_insert>
}
 10814f4:	e037883a 	mov	sp,fp
 10814f8:	dfc00117 	ldw	ra,4(sp)
 10814fc:	df000017 	ldw	fp,0(sp)
 1081500:	dec00204 	addi	sp,sp,8
 1081504:	f800283a 	ret

01081508 <altera_avalon_jtag_uart_read_fd>:
 *
 */

int 
altera_avalon_jtag_uart_read_fd(alt_fd* fd, char* buffer, int space)
{
 1081508:	defffa04 	addi	sp,sp,-24
 108150c:	dfc00515 	stw	ra,20(sp)
 1081510:	df000415 	stw	fp,16(sp)
 1081514:	df000404 	addi	fp,sp,16
 1081518:	e13ffd15 	stw	r4,-12(fp)
 108151c:	e17ffe15 	stw	r5,-8(fp)
 1081520:	e1bfff15 	stw	r6,-4(fp)
    altera_avalon_jtag_uart_dev* dev = (altera_avalon_jtag_uart_dev*) fd->dev; 
 1081524:	e0bffd17 	ldw	r2,-12(fp)
 1081528:	10800017 	ldw	r2,0(r2)
 108152c:	e0bffc15 	stw	r2,-16(fp)

    return altera_avalon_jtag_uart_read(&dev->state, buffer, space,
 1081530:	e0bffc17 	ldw	r2,-16(fp)
 1081534:	11000a04 	addi	r4,r2,40
 1081538:	e0bffd17 	ldw	r2,-12(fp)
 108153c:	11c00217 	ldw	r7,8(r2)
 1081540:	e17ffe17 	ldw	r5,-8(fp)
 1081544:	e1bfff17 	ldw	r6,-4(fp)
 1081548:	10815b80 	call	10815b8 <altera_avalon_jtag_uart_read>
      fd->fd_flags);
}
 108154c:	e037883a 	mov	sp,fp
 1081550:	dfc00117 	ldw	ra,4(sp)
 1081554:	df000017 	ldw	fp,0(sp)
 1081558:	dec00204 	addi	sp,sp,8
 108155c:	f800283a 	ret

01081560 <altera_avalon_jtag_uart_write_fd>:

int 
altera_avalon_jtag_uart_write_fd(alt_fd* fd, const char* buffer, int space)
{
 1081560:	defffa04 	addi	sp,sp,-24
 1081564:	dfc00515 	stw	ra,20(sp)
 1081568:	df000415 	stw	fp,16(sp)
 108156c:	df000404 	addi	fp,sp,16
 1081570:	e13ffd15 	stw	r4,-12(fp)
 1081574:	e17ffe15 	stw	r5,-8(fp)
 1081578:	e1bfff15 	stw	r6,-4(fp)
    altera_avalon_jtag_uart_dev* dev = (altera_avalon_jtag_uart_dev*) fd->dev; 
 108157c:	e0bffd17 	ldw	r2,-12(fp)
 1081580:	10800017 	ldw	r2,0(r2)
 1081584:	e0bffc15 	stw	r2,-16(fp)

    return altera_avalon_jtag_uart_write(&dev->state, buffer, space,
 1081588:	e0bffc17 	ldw	r2,-16(fp)
 108158c:	11000a04 	addi	r4,r2,40
 1081590:	e0bffd17 	ldw	r2,-12(fp)
 1081594:	11c00217 	ldw	r7,8(r2)
 1081598:	e17ffe17 	ldw	r5,-8(fp)
 108159c:	e1bfff17 	ldw	r6,-4(fp)
 10815a0:	10816bc0 	call	10816bc <altera_avalon_jtag_uart_write>
      fd->fd_flags);
}
 10815a4:	e037883a 	mov	sp,fp
 10815a8:	dfc00117 	ldw	ra,4(sp)
 10815ac:	df000017 	ldw	fp,0(sp)
 10815b0:	dec00204 	addi	sp,sp,8
 10815b4:	f800283a 	ret

010815b8 <altera_avalon_jtag_uart_read>:
 */

int 
altera_avalon_jtag_uart_read(altera_avalon_jtag_uart_state* sp, 
  char* buffer, int space, int flags)
{
 10815b8:	defff604 	addi	sp,sp,-40
 10815bc:	df000915 	stw	fp,36(sp)
 10815c0:	df000904 	addi	fp,sp,36
 10815c4:	e13ffb15 	stw	r4,-20(fp)
 10815c8:	e17ffc15 	stw	r5,-16(fp)
 10815cc:	e1bffd15 	stw	r6,-12(fp)
 10815d0:	e1fffe15 	stw	r7,-8(fp)
  unsigned int base = sp->base;
 10815d4:	e0bffb17 	ldw	r2,-20(fp)
 10815d8:	10800017 	ldw	r2,0(r2)
 10815dc:	e0bffa15 	stw	r2,-24(fp)

  char * ptr = buffer;
 10815e0:	e0bffc17 	ldw	r2,-16(fp)
 10815e4:	e0bff915 	stw	r2,-28(fp)
  char * end = buffer + space;
 10815e8:	e0bffd17 	ldw	r2,-12(fp)
 10815ec:	1007883a 	mov	r3,r2
 10815f0:	e0bffc17 	ldw	r2,-16(fp)
 10815f4:	10c5883a 	add	r2,r2,r3
 10815f8:	e0bff815 	stw	r2,-32(fp)

  while (ptr < end)
 10815fc:	00001606 	br	1081658 <altera_avalon_jtag_uart_read+0xa0>
  {
    unsigned int data = IORD_ALTERA_AVALON_JTAG_UART_DATA(base);
 1081600:	e0bffa17 	ldw	r2,-24(fp)
 1081604:	10800037 	ldwio	r2,0(r2)
 1081608:	e0bff715 	stw	r2,-36(fp)

    if (data & ALTERA_AVALON_JTAG_UART_DATA_RVALID_MSK)
 108160c:	e0bff717 	ldw	r2,-36(fp)
 1081610:	10a0000c 	andi	r2,r2,32768
 1081614:	1005003a 	cmpeq	r2,r2,zero
 1081618:	1000081e 	bne	r2,zero,108163c <altera_avalon_jtag_uart_read+0x84>
      *ptr++ = (data & ALTERA_AVALON_JTAG_UART_DATA_DATA_MSK) >> ALTERA_AVALON_JTAG_UART_DATA_DATA_OFST;
 108161c:	e0bff717 	ldw	r2,-36(fp)
 1081620:	1007883a 	mov	r3,r2
 1081624:	e0bff917 	ldw	r2,-28(fp)
 1081628:	10c00005 	stb	r3,0(r2)
 108162c:	e0bff917 	ldw	r2,-28(fp)
 1081630:	10800044 	addi	r2,r2,1
 1081634:	e0bff915 	stw	r2,-28(fp)
 1081638:	00000706 	br	1081658 <altera_avalon_jtag_uart_read+0xa0>
    else if (ptr != buffer)
 108163c:	e0fff917 	ldw	r3,-28(fp)
 1081640:	e0bffc17 	ldw	r2,-16(fp)
 1081644:	1880071e 	bne	r3,r2,1081664 <altera_avalon_jtag_uart_read+0xac>
      break;
    else if(flags & O_NONBLOCK)
 1081648:	e0bffe17 	ldw	r2,-8(fp)
 108164c:	1090000c 	andi	r2,r2,16384
 1081650:	1004c03a 	cmpne	r2,r2,zero
 1081654:	1000031e 	bne	r2,zero,1081664 <altera_avalon_jtag_uart_read+0xac>
  unsigned int base = sp->base;

  char * ptr = buffer;
  char * end = buffer + space;

  while (ptr < end)
 1081658:	e0fff917 	ldw	r3,-28(fp)
 108165c:	e0bff817 	ldw	r2,-32(fp)
 1081660:	18bfe736 	bltu	r3,r2,1081600 <altera_avalon_jtag_uart_read+0x48>
    else if(flags & O_NONBLOCK)
      break;   
    
  }

  if (ptr != buffer)
 1081664:	e0fff917 	ldw	r3,-28(fp)
 1081668:	e0bffc17 	ldw	r2,-16(fp)
 108166c:	18800526 	beq	r3,r2,1081684 <altera_avalon_jtag_uart_read+0xcc>
    return ptr - buffer;
 1081670:	e0fff917 	ldw	r3,-28(fp)
 1081674:	e0bffc17 	ldw	r2,-16(fp)
 1081678:	1887c83a 	sub	r3,r3,r2
 108167c:	e0ffff15 	stw	r3,-4(fp)
 1081680:	00000906 	br	10816a8 <altera_avalon_jtag_uart_read+0xf0>
  else if (flags & O_NONBLOCK)
 1081684:	e0bffe17 	ldw	r2,-8(fp)
 1081688:	1090000c 	andi	r2,r2,16384
 108168c:	1005003a 	cmpeq	r2,r2,zero
 1081690:	1000031e 	bne	r2,zero,10816a0 <altera_avalon_jtag_uart_read+0xe8>
    return -EWOULDBLOCK;
 1081694:	00bffd44 	movi	r2,-11
 1081698:	e0bfff15 	stw	r2,-4(fp)
 108169c:	00000206 	br	10816a8 <altera_avalon_jtag_uart_read+0xf0>
  else
    return -EIO;
 10816a0:	00bffec4 	movi	r2,-5
 10816a4:	e0bfff15 	stw	r2,-4(fp)
 10816a8:	e0bfff17 	ldw	r2,-4(fp)
}
 10816ac:	e037883a 	mov	sp,fp
 10816b0:	df000017 	ldw	fp,0(sp)
 10816b4:	dec00104 	addi	sp,sp,4
 10816b8:	f800283a 	ret

010816bc <altera_avalon_jtag_uart_write>:
 * one FIFOs worth of data.  But you said you didn't want to use interrupts :-)
 */

int altera_avalon_jtag_uart_write(altera_avalon_jtag_uart_state* sp, 
  const char * ptr, int count, int flags)
{
 10816bc:	defff904 	addi	sp,sp,-28
 10816c0:	df000615 	stw	fp,24(sp)
 10816c4:	df000604 	addi	fp,sp,24
 10816c8:	e13ffc15 	stw	r4,-16(fp)
 10816cc:	e17ffd15 	stw	r5,-12(fp)
 10816d0:	e1bffe15 	stw	r6,-8(fp)
 10816d4:	e1ffff15 	stw	r7,-4(fp)
  unsigned int base = sp->base;
 10816d8:	e0bffc17 	ldw	r2,-16(fp)
 10816dc:	10800017 	ldw	r2,0(r2)
 10816e0:	e0bffb15 	stw	r2,-20(fp)

  const char * end = ptr + count;
 10816e4:	e0bffe17 	ldw	r2,-8(fp)
 10816e8:	1007883a 	mov	r3,r2
 10816ec:	e0bffd17 	ldw	r2,-12(fp)
 10816f0:	10c5883a 	add	r2,r2,r3
 10816f4:	e0bffa15 	stw	r2,-24(fp)

  while (ptr < end)
 10816f8:	00001106 	br	1081740 <altera_avalon_jtag_uart_write+0x84>
    if ((IORD_ALTERA_AVALON_JTAG_UART_CONTROL(base) & ALTERA_AVALON_JTAG_UART_CONTROL_WSPACE_MSK) != 0)
 10816fc:	e0bffb17 	ldw	r2,-20(fp)
 1081700:	10800104 	addi	r2,r2,4
 1081704:	10800037 	ldwio	r2,0(r2)
 1081708:	10bfffec 	andhi	r2,r2,65535
 108170c:	1005003a 	cmpeq	r2,r2,zero
 1081710:	10000b1e 	bne	r2,zero,1081740 <altera_avalon_jtag_uart_write+0x84>
      IOWR_ALTERA_AVALON_JTAG_UART_DATA(base, *ptr++);
 1081714:	e13ffb17 	ldw	r4,-20(fp)
 1081718:	e0bffd17 	ldw	r2,-12(fp)
 108171c:	10800003 	ldbu	r2,0(r2)
 1081720:	10c03fcc 	andi	r3,r2,255
 1081724:	18c0201c 	xori	r3,r3,128
 1081728:	18ffe004 	addi	r3,r3,-128
 108172c:	e0bffd17 	ldw	r2,-12(fp)
 1081730:	10800044 	addi	r2,r2,1
 1081734:	e0bffd15 	stw	r2,-12(fp)
 1081738:	2005883a 	mov	r2,r4
 108173c:	10c00035 	stwio	r3,0(r2)
{
  unsigned int base = sp->base;

  const char * end = ptr + count;

  while (ptr < end)
 1081740:	e0fffd17 	ldw	r3,-12(fp)
 1081744:	e0bffa17 	ldw	r2,-24(fp)
 1081748:	18bfec36 	bltu	r3,r2,10816fc <altera_avalon_jtag_uart_write+0x40>
    if ((IORD_ALTERA_AVALON_JTAG_UART_CONTROL(base) & ALTERA_AVALON_JTAG_UART_CONTROL_WSPACE_MSK) != 0)
      IOWR_ALTERA_AVALON_JTAG_UART_DATA(base, *ptr++);

  return count;
 108174c:	e0bffe17 	ldw	r2,-8(fp)
}
 1081750:	e037883a 	mov	sp,fp
 1081754:	df000017 	ldw	fp,0(sp)
 1081758:	dec00104 	addi	sp,sp,4
 108175c:	f800283a 	ret

01081760 <alt_avalon_timer_sc_irq>:
#ifdef ALT_ENHANCED_INTERRUPT_API_PRESENT
static void alt_avalon_timer_sc_irq (void* base)
#else
static void alt_avalon_timer_sc_irq (void* base, alt_u32 id)
#endif
{
 1081760:	defffa04 	addi	sp,sp,-24
 1081764:	dfc00515 	stw	ra,20(sp)
 1081768:	df000415 	stw	fp,16(sp)
 108176c:	df000404 	addi	fp,sp,16
 1081770:	e13fff15 	stw	r4,-4(fp)
  alt_irq_context cpu_sr;
  
  /* clear the interrupt */
  IOWR_ALTERA_AVALON_TIMER_STATUS (base, 0);
 1081774:	e0bfff17 	ldw	r2,-4(fp)
 1081778:	10000035 	stwio	zero,0(r2)
  /* 
   * Dummy read to ensure IRQ is negated before the ISR returns.
   * The control register is read because reading the status
   * register has side-effects per the register map documentation.
   */
  IORD_ALTERA_AVALON_TIMER_CONTROL (base);
 108177c:	e0bfff17 	ldw	r2,-4(fp)
 1081780:	10800104 	addi	r2,r2,4
 1081784:	10800037 	ldwio	r2,0(r2)
static ALT_INLINE alt_irq_context ALT_ALWAYS_INLINE 
       alt_irq_disable_all (void)
{
  alt_irq_context context;

  NIOS2_READ_STATUS (context);
 1081788:	0005303a 	rdctl	r2,status
 108178c:	e0bffd15 	stw	r2,-12(fp)

  NIOS2_WRITE_STATUS (context & ~NIOS2_STATUS_PIE_MSK);
 1081790:	e0fffd17 	ldw	r3,-12(fp)
 1081794:	00bfff84 	movi	r2,-2
 1081798:	1884703a 	and	r2,r3,r2
 108179c:	1001703a 	wrctl	status,r2
  
  return context;
 10817a0:	e0bffd17 	ldw	r2,-12(fp)

  /* 
   * Notify the system of a clock tick. disable interrupts 
   * during this time to safely support ISR preemption
   */
  cpu_sr = alt_irq_disable_all();
 10817a4:	e0bffe15 	stw	r2,-8(fp)
  alt_tick ();
 10817a8:	10824c40 	call	10824c4 <alt_tick>
 10817ac:	e0bffe17 	ldw	r2,-8(fp)
 10817b0:	e0bffc15 	stw	r2,-16(fp)
  status &= ~NIOS2_STATUS_PIE_MSK;
  status |= (context & NIOS2_STATUS_PIE_MSK);
  
  NIOS2_WRITE_STATUS (status);
#else
  NIOS2_WRITE_STATUS (context);
 10817b4:	e0bffc17 	ldw	r2,-16(fp)
 10817b8:	1001703a 	wrctl	status,r2
  alt_irq_enable_all(cpu_sr);
}
 10817bc:	e037883a 	mov	sp,fp
 10817c0:	dfc00117 	ldw	ra,4(sp)
 10817c4:	df000017 	ldw	fp,0(sp)
 10817c8:	dec00204 	addi	sp,sp,8
 10817cc:	f800283a 	ret

010817d0 <alt_avalon_timer_sc_init>:
 * auto-generated alt_sys_init() function.
 */

void alt_avalon_timer_sc_init (void* base, alt_u32 irq_controller_id, 
                                alt_u32 irq, alt_u32 freq)
{
 10817d0:	defff804 	addi	sp,sp,-32
 10817d4:	dfc00715 	stw	ra,28(sp)
 10817d8:	df000615 	stw	fp,24(sp)
 10817dc:	df000604 	addi	fp,sp,24
 10817e0:	e13ffc15 	stw	r4,-16(fp)
 10817e4:	e17ffd15 	stw	r5,-12(fp)
 10817e8:	e1bffe15 	stw	r6,-8(fp)
 10817ec:	e1ffff15 	stw	r7,-4(fp)
 10817f0:	e0bfff17 	ldw	r2,-4(fp)
 10817f4:	e0bffb15 	stw	r2,-20(fp)
 * in order to initialise the value of the clock frequency.
 */

static ALT_INLINE int ALT_ALWAYS_INLINE alt_sysclk_init (alt_u32 nticks)
{
  if (! _alt_tick_rate)
 10817f8:	00804234 	movhi	r2,264
 10817fc:	108ca004 	addi	r2,r2,12928
 1081800:	10800017 	ldw	r2,0(r2)
 1081804:	1004c03a 	cmpne	r2,r2,zero
 1081808:	1000041e 	bne	r2,zero,108181c <alt_avalon_timer_sc_init+0x4c>
  {
    _alt_tick_rate = nticks;
 108180c:	00c04234 	movhi	r3,264
 1081810:	18cca004 	addi	r3,r3,12928
 1081814:	e0bffb17 	ldw	r2,-20(fp)
 1081818:	18800015 	stw	r2,0(r3)
  
  alt_sysclk_init (freq);
  
  /* set to free running mode */
  
  IOWR_ALTERA_AVALON_TIMER_CONTROL (base, 
 108181c:	e0bffc17 	ldw	r2,-16(fp)
 1081820:	10800104 	addi	r2,r2,4
 1081824:	1007883a 	mov	r3,r2
 1081828:	008001c4 	movi	r2,7
 108182c:	18800035 	stwio	r2,0(r3)
            ALTERA_AVALON_TIMER_CONTROL_CONT_MSK |
            ALTERA_AVALON_TIMER_CONTROL_START_MSK);

  /* register the interrupt handler, and enable the interrupt */
#ifdef ALT_ENHANCED_INTERRUPT_API_PRESENT
  alt_ic_isr_register(irq_controller_id, irq, alt_avalon_timer_sc_irq, 
 1081830:	d8000015 	stw	zero,0(sp)
 1081834:	e13ffd17 	ldw	r4,-12(fp)
 1081838:	e17ffe17 	ldw	r5,-8(fp)
 108183c:	01804234 	movhi	r6,264
 1081840:	3185d804 	addi	r6,r6,5984
 1081844:	e1fffc17 	ldw	r7,-16(fp)
 1081848:	1081cb40 	call	1081cb4 <alt_ic_isr_register>
                      base, NULL);
#else
  alt_irq_register (irq, base, alt_avalon_timer_sc_irq);
#endif  
}
 108184c:	e037883a 	mov	sp,fp
 1081850:	dfc00117 	ldw	ra,4(sp)
 1081854:	df000017 	ldw	fp,0(sp)
 1081858:	dec00204 	addi	sp,sp,8
 108185c:	f800283a 	ret

01081860 <alt_timestamp_start>:
 * The return value of this function is 0 upon sucess and -1 if in timestamp
 * device has not been registered. 
 */

int alt_timestamp_start(void)
{
 1081860:	defffd04 	addi	sp,sp,-12
 1081864:	df000215 	stw	fp,8(sp)
 1081868:	df000204 	addi	fp,sp,8
  void* base = altera_avalon_timer_ts_base;
 108186c:	00804234 	movhi	r2,264
 1081870:	108c9d04 	addi	r2,r2,12916
 1081874:	10800017 	ldw	r2,0(r2)
 1081878:	e0bffe15 	stw	r2,-8(fp)

  if (!altera_avalon_timer_ts_freq)
 108187c:	00804234 	movhi	r2,264
 1081880:	108c9e04 	addi	r2,r2,12920
 1081884:	10800017 	ldw	r2,0(r2)
 1081888:	1004c03a 	cmpne	r2,r2,zero
 108188c:	1000031e 	bne	r2,zero,108189c <alt_timestamp_start+0x3c>
  {
    return -1;
 1081890:	00bfffc4 	movi	r2,-1
 1081894:	e0bfff15 	stw	r2,-4(fp)
 1081898:	00001506 	br	10818f0 <alt_timestamp_start+0x90>
        IOWR_ALTERA_AVALON_TIMER_PERIOD_1 (base, 0xFFFF);;
        IOWR_ALTERA_AVALON_TIMER_PERIOD_2 (base, 0xFFFF);
        IOWR_ALTERA_AVALON_TIMER_PERIOD_3 (base, 0xFFFF);
        IOWR_ALTERA_AVALON_TIMER_CONTROL (base, ALTERA_AVALON_TIMER_CONTROL_START_MSK);
    } else {
        IOWR_ALTERA_AVALON_TIMER_CONTROL (base,ALTERA_AVALON_TIMER_CONTROL_STOP_MSK);
 108189c:	e0bffe17 	ldw	r2,-8(fp)
 10818a0:	10800104 	addi	r2,r2,4
 10818a4:	1007883a 	mov	r3,r2
 10818a8:	00800204 	movi	r2,8
 10818ac:	18800035 	stwio	r2,0(r3)
        IOWR_ALTERA_AVALON_TIMER_PERIODL (base, 0xFFFF);
 10818b0:	e0bffe17 	ldw	r2,-8(fp)
 10818b4:	10800204 	addi	r2,r2,8
 10818b8:	1007883a 	mov	r3,r2
 10818bc:	00bfffd4 	movui	r2,65535
 10818c0:	18800035 	stwio	r2,0(r3)
        IOWR_ALTERA_AVALON_TIMER_PERIODH (base, 0xFFFF);
 10818c4:	e0bffe17 	ldw	r2,-8(fp)
 10818c8:	10800304 	addi	r2,r2,12
 10818cc:	1007883a 	mov	r3,r2
 10818d0:	00bfffd4 	movui	r2,65535
 10818d4:	18800035 	stwio	r2,0(r3)
        IOWR_ALTERA_AVALON_TIMER_CONTROL (base, ALTERA_AVALON_TIMER_CONTROL_START_MSK); 
 10818d8:	e0bffe17 	ldw	r2,-8(fp)
 10818dc:	10800104 	addi	r2,r2,4
 10818e0:	1007883a 	mov	r3,r2
 10818e4:	00800104 	movi	r2,4
 10818e8:	18800035 	stwio	r2,0(r3)
    } 
  }
  return 0;
 10818ec:	e03fff15 	stw	zero,-4(fp)
 10818f0:	e0bfff17 	ldw	r2,-4(fp)
}
 10818f4:	e037883a 	mov	sp,fp
 10818f8:	df000017 	ldw	fp,0(sp)
 10818fc:	dec00104 	addi	sp,sp,4
 1081900:	f800283a 	ret

01081904 <alt_timestamp>:
 * The returned timestamp counts up from the last time the period register
 * was reset. 
 */

alt_timestamp_type alt_timestamp(void)
{
 1081904:	defffb04 	addi	sp,sp,-20
 1081908:	df000415 	stw	fp,16(sp)
 108190c:	df000404 	addi	fp,sp,16

  void* base = altera_avalon_timer_ts_base;
 1081910:	00804234 	movhi	r2,264
 1081914:	108c9d04 	addi	r2,r2,12916
 1081918:	10800017 	ldw	r2,0(r2)
 108191c:	e0bffe15 	stw	r2,-8(fp)

  if (!altera_avalon_timer_ts_freq)
 1081920:	00804234 	movhi	r2,264
 1081924:	108c9e04 	addi	r2,r2,12920
 1081928:	10800017 	ldw	r2,0(r2)
 108192c:	1004c03a 	cmpne	r2,r2,zero
 1081930:	1000031e 	bne	r2,zero,1081940 <alt_timestamp+0x3c>
  {
	if(ALT_TIMESTAMP_COUNTER_SIZE == 64) {
        return 0xFFFFFFFFFFFFFFFFULL;
    } else {
        return 0xFFFFFFFF;
 1081934:	00bfffc4 	movi	r2,-1
 1081938:	e0bfff15 	stw	r2,-4(fp)
 108193c:	00001306 	br	108198c <alt_timestamp+0x88>
        alt_timestamp_type snap_2 = IORD_ALTERA_AVALON_TIMER_SNAP_2(base) & ALTERA_AVALON_TIMER_SNAP_2_MSK;
        alt_timestamp_type snap_3 = IORD_ALTERA_AVALON_TIMER_SNAP_3(base) & ALTERA_AVALON_TIMER_SNAP_3_MSK;
        
        return (0xFFFFFFFFFFFFFFFFULL - ( (snap_3 << 48) | (snap_2 << 32) | (snap_1 << 16) | (snap_0) ));
    } else {
        IOWR_ALTERA_AVALON_TIMER_SNAPL (base, 0);
 1081940:	e0bffe17 	ldw	r2,-8(fp)
 1081944:	10800404 	addi	r2,r2,16
 1081948:	10000035 	stwio	zero,0(r2)
        alt_timestamp_type lower = IORD_ALTERA_AVALON_TIMER_SNAPL(base) & ALTERA_AVALON_TIMER_SNAPL_MSK;
 108194c:	e0bffe17 	ldw	r2,-8(fp)
 1081950:	10800404 	addi	r2,r2,16
 1081954:	10800037 	ldwio	r2,0(r2)
 1081958:	10bfffcc 	andi	r2,r2,65535
 108195c:	e0bffd15 	stw	r2,-12(fp)
        alt_timestamp_type upper = IORD_ALTERA_AVALON_TIMER_SNAPH(base) & ALTERA_AVALON_TIMER_SNAPH_MSK;
 1081960:	e0bffe17 	ldw	r2,-8(fp)
 1081964:	10800504 	addi	r2,r2,20
 1081968:	10800037 	ldwio	r2,0(r2)
 108196c:	10bfffcc 	andi	r2,r2,65535
 1081970:	e0bffc15 	stw	r2,-16(fp)
        
        return (0xFFFFFFFF - ((upper << 16) | lower)); 
 1081974:	e0bffc17 	ldw	r2,-16(fp)
 1081978:	1006943a 	slli	r3,r2,16
 108197c:	e0bffd17 	ldw	r2,-12(fp)
 1081980:	1884b03a 	or	r2,r3,r2
 1081984:	0084303a 	nor	r2,zero,r2
 1081988:	e0bfff15 	stw	r2,-4(fp)
 108198c:	e0bfff17 	ldw	r2,-4(fp)
    }  
  }
}
 1081990:	e037883a 	mov	sp,fp
 1081994:	df000017 	ldw	fp,0(sp)
 1081998:	dec00104 	addi	sp,sp,4
 108199c:	f800283a 	ret

010819a0 <alt_timestamp_freq>:
 * Return the number of timestamp ticks per second. This will be 0 if no
 * timestamp device has been registered.
 */

alt_u32 alt_timestamp_freq(void)
{
 10819a0:	deffff04 	addi	sp,sp,-4
 10819a4:	df000015 	stw	fp,0(sp)
 10819a8:	d839883a 	mov	fp,sp
  return altera_avalon_timer_ts_freq;
 10819ac:	00804234 	movhi	r2,264
 10819b0:	108c9e04 	addi	r2,r2,12920
 10819b4:	10800017 	ldw	r2,0(r2)
}
 10819b8:	e037883a 	mov	sp,fp
 10819bc:	df000017 	ldw	fp,0(sp)
 10819c0:	dec00104 	addi	sp,sp,4
 10819c4:	f800283a 	ret

010819c8 <close>:
 *
 * ALT_CLOSE is mapped onto the close() system call in alt_syscall.h
 */
 
int ALT_CLOSE (int fildes)
{
 10819c8:	defff804 	addi	sp,sp,-32
 10819cc:	dfc00715 	stw	ra,28(sp)
 10819d0:	df000615 	stw	fp,24(sp)
 10819d4:	df000604 	addi	fp,sp,24
 10819d8:	e13ffc15 	stw	r4,-16(fp)
   * A common error case is that when the file descriptor was created, the call
   * to open() failed resulting in a negative file descriptor. This is trapped
   * below so that we don't try and process an invalid file descriptor.
   */

  fd = (fildes < 0) ? NULL : &alt_fd_list[fildes];
 10819dc:	e0bffc17 	ldw	r2,-16(fp)
 10819e0:	1004803a 	cmplt	r2,r2,zero
 10819e4:	1000091e 	bne	r2,zero,1081a0c <close+0x44>
 10819e8:	e13ffc17 	ldw	r4,-16(fp)
 10819ec:	01400304 	movi	r5,12
 10819f0:	10811280 	call	1081128 <__mulsi3>
 10819f4:	1007883a 	mov	r3,r2
 10819f8:	00804234 	movhi	r2,264
 10819fc:	108b7604 	addi	r2,r2,11736
 1081a00:	1887883a 	add	r3,r3,r2
 1081a04:	e0ffff15 	stw	r3,-4(fp)
 1081a08:	00000106 	br	1081a10 <close+0x48>
 1081a0c:	e03fff15 	stw	zero,-4(fp)
 1081a10:	e0bfff17 	ldw	r2,-4(fp)
 1081a14:	e0bffb15 	stw	r2,-20(fp)

  if (fd)
 1081a18:	e0bffb17 	ldw	r2,-20(fp)
 1081a1c:	1005003a 	cmpeq	r2,r2,zero
 1081a20:	10001d1e 	bne	r2,zero,1081a98 <close+0xd0>
    /*
     * If the associated file system/device has a close function, call it so 
     * that any necessary cleanup code can run.
     */

    rval = (fd->dev->close) ? fd->dev->close(fd) : 0;
 1081a24:	e0bffb17 	ldw	r2,-20(fp)
 1081a28:	10800017 	ldw	r2,0(r2)
 1081a2c:	10800417 	ldw	r2,16(r2)
 1081a30:	1005003a 	cmpeq	r2,r2,zero
 1081a34:	1000071e 	bne	r2,zero,1081a54 <close+0x8c>
 1081a38:	e0bffb17 	ldw	r2,-20(fp)
 1081a3c:	10800017 	ldw	r2,0(r2)
 1081a40:	10800417 	ldw	r2,16(r2)
 1081a44:	e13ffb17 	ldw	r4,-20(fp)
 1081a48:	103ee83a 	callr	r2
 1081a4c:	e0bffe15 	stw	r2,-8(fp)
 1081a50:	00000106 	br	1081a58 <close+0x90>
 1081a54:	e03ffe15 	stw	zero,-8(fp)
 1081a58:	e0bffe17 	ldw	r2,-8(fp)
 1081a5c:	e0bffa15 	stw	r2,-24(fp)

    /* Free the file descriptor structure and return. */

    alt_release_fd (fildes);
 1081a60:	e13ffc17 	ldw	r4,-16(fp)
 1081a64:	10823b40 	call	10823b4 <alt_release_fd>
    if (rval < 0)
 1081a68:	e0bffa17 	ldw	r2,-24(fp)
 1081a6c:	1004403a 	cmpge	r2,r2,zero
 1081a70:	1000071e 	bne	r2,zero,1081a90 <close+0xc8>
    {
      ALT_ERRNO = -rval;
 1081a74:	1081ac80 	call	1081ac8 <alt_get_errno>
 1081a78:	e0fffa17 	ldw	r3,-24(fp)
 1081a7c:	00c7c83a 	sub	r3,zero,r3
 1081a80:	10c00015 	stw	r3,0(r2)
      return -1;
 1081a84:	00bfffc4 	movi	r2,-1
 1081a88:	e0bffd15 	stw	r2,-12(fp)
 1081a8c:	00000806 	br	1081ab0 <close+0xe8>
    }
    return 0;
 1081a90:	e03ffd15 	stw	zero,-12(fp)
 1081a94:	00000606 	br	1081ab0 <close+0xe8>
  }
  else
  {
    ALT_ERRNO = EBADFD;
 1081a98:	1081ac80 	call	1081ac8 <alt_get_errno>
 1081a9c:	1007883a 	mov	r3,r2
 1081aa0:	00801444 	movi	r2,81
 1081aa4:	18800015 	stw	r2,0(r3)
    return -1;
 1081aa8:	00bfffc4 	movi	r2,-1
 1081aac:	e0bffd15 	stw	r2,-12(fp)
 1081ab0:	e0bffd17 	ldw	r2,-12(fp)
  }
}
 1081ab4:	e037883a 	mov	sp,fp
 1081ab8:	dfc00117 	ldw	ra,4(sp)
 1081abc:	df000017 	ldw	fp,0(sp)
 1081ac0:	dec00204 	addi	sp,sp,8
 1081ac4:	f800283a 	ret

01081ac8 <alt_get_errno>:
#undef errno

extern int errno;

static ALT_INLINE int* alt_get_errno(void)
{
 1081ac8:	defffd04 	addi	sp,sp,-12
 1081acc:	dfc00215 	stw	ra,8(sp)
 1081ad0:	df000115 	stw	fp,4(sp)
 1081ad4:	df000104 	addi	fp,sp,4
  return ((alt_errno) ? alt_errno() : &errno);
 1081ad8:	00804234 	movhi	r2,264
 1081adc:	108bdd04 	addi	r2,r2,12148
 1081ae0:	10800017 	ldw	r2,0(r2)
 1081ae4:	1005003a 	cmpeq	r2,r2,zero
 1081ae8:	1000061e 	bne	r2,zero,1081b04 <alt_get_errno+0x3c>
 1081aec:	00804234 	movhi	r2,264
 1081af0:	108bdd04 	addi	r2,r2,12148
 1081af4:	10800017 	ldw	r2,0(r2)
 1081af8:	103ee83a 	callr	r2
 1081afc:	e0bfff15 	stw	r2,-4(fp)
 1081b00:	00000306 	br	1081b10 <alt_get_errno+0x48>
 1081b04:	00804234 	movhi	r2,264
 1081b08:	108c9904 	addi	r2,r2,12900
 1081b0c:	e0bfff15 	stw	r2,-4(fp)
 1081b10:	e0bfff17 	ldw	r2,-4(fp)
}
 1081b14:	e037883a 	mov	sp,fp
 1081b18:	dfc00117 	ldw	ra,4(sp)
 1081b1c:	df000017 	ldw	fp,0(sp)
 1081b20:	dec00204 	addi	sp,sp,8
 1081b24:	f800283a 	ret

01081b28 <alt_dcache_flush_all>:
/*
 * alt_dcache_flush_all() is called to flush the entire data cache.
 */

void alt_dcache_flush_all (void)
{
 1081b28:	deffff04 	addi	sp,sp,-4
 1081b2c:	df000015 	stw	fp,0(sp)
 1081b30:	d839883a 	mov	fp,sp
  for (i = (char*) 0; i < (char*) NIOS2_DCACHE_SIZE; i+= NIOS2_DCACHE_LINE_SIZE)
  { 
    __asm__ volatile ("flushd (%0)" :: "r" (i));
  }
#endif /* NIOS2_DCACHE_SIZE > 0 */
}
 1081b34:	e037883a 	mov	sp,fp
 1081b38:	df000017 	ldw	fp,0(sp)
 1081b3c:	dec00104 	addi	sp,sp,4
 1081b40:	f800283a 	ret

01081b44 <alt_dev_null_write>:
 * by the alt_dev_null device. It simple discards all data passed to it, and
 * indicates that the data has been successfully transmitted.
 */

static int alt_dev_null_write (alt_fd* fd, const char* ptr, int len)
{
 1081b44:	defffc04 	addi	sp,sp,-16
 1081b48:	df000315 	stw	fp,12(sp)
 1081b4c:	df000304 	addi	fp,sp,12
 1081b50:	e13ffd15 	stw	r4,-12(fp)
 1081b54:	e17ffe15 	stw	r5,-8(fp)
 1081b58:	e1bfff15 	stw	r6,-4(fp)
  return len;
 1081b5c:	e0bfff17 	ldw	r2,-4(fp)
}
 1081b60:	e037883a 	mov	sp,fp
 1081b64:	df000017 	ldw	fp,0(sp)
 1081b68:	dec00104 	addi	sp,sp,4
 1081b6c:	f800283a 	ret

01081b70 <alt_dev_llist_insert>:
/*
 *
 */

int alt_dev_llist_insert (alt_dev_llist* dev, alt_llist* list)
{
 1081b70:	defff904 	addi	sp,sp,-28
 1081b74:	dfc00615 	stw	ra,24(sp)
 1081b78:	df000515 	stw	fp,20(sp)
 1081b7c:	df000504 	addi	fp,sp,20
 1081b80:	e13ffd15 	stw	r4,-12(fp)
 1081b84:	e17ffe15 	stw	r5,-8(fp)
  /*
   * check that the device exists, and that it has a valid name.
   */

  if (!dev || !dev->name)
 1081b88:	e0bffd17 	ldw	r2,-12(fp)
 1081b8c:	1005003a 	cmpeq	r2,r2,zero
 1081b90:	1000041e 	bne	r2,zero,1081ba4 <alt_dev_llist_insert+0x34>
 1081b94:	e0bffd17 	ldw	r2,-12(fp)
 1081b98:	10800217 	ldw	r2,8(r2)
 1081b9c:	1004c03a 	cmpne	r2,r2,zero
 1081ba0:	1000071e 	bne	r2,zero,1081bc0 <alt_dev_llist_insert+0x50>
  {
    ALT_ERRNO = EINVAL;
 1081ba4:	1081c240 	call	1081c24 <alt_get_errno>
 1081ba8:	1007883a 	mov	r3,r2
 1081bac:	00800584 	movi	r2,22
 1081bb0:	18800015 	stw	r2,0(r3)
    return -EINVAL;
 1081bb4:	00bffa84 	movi	r2,-22
 1081bb8:	e0bfff15 	stw	r2,-4(fp)
 1081bbc:	00001306 	br	1081c0c <alt_dev_llist_insert+0x9c>
  
  /*
   * register the device.
   */
  
  alt_llist_insert(list, &dev->llist);
 1081bc0:	e0fffd17 	ldw	r3,-12(fp)
 1081bc4:	e0bffe17 	ldw	r2,-8(fp)
 1081bc8:	e0bffb15 	stw	r2,-20(fp)
 1081bcc:	e0fffc15 	stw	r3,-16(fp)
 */

static ALT_INLINE void ALT_ALWAYS_INLINE alt_llist_insert(alt_llist* list, 
                alt_llist* entry)
{
  entry->previous = list;
 1081bd0:	e0fffc17 	ldw	r3,-16(fp)
 1081bd4:	e0bffb17 	ldw	r2,-20(fp)
 1081bd8:	18800115 	stw	r2,4(r3)
  entry->next     = list->next;
 1081bdc:	e0bffb17 	ldw	r2,-20(fp)
 1081be0:	10c00017 	ldw	r3,0(r2)
 1081be4:	e0bffc17 	ldw	r2,-16(fp)
 1081be8:	10c00015 	stw	r3,0(r2)

  list->next->previous = entry;
 1081bec:	e0bffb17 	ldw	r2,-20(fp)
 1081bf0:	10c00017 	ldw	r3,0(r2)
 1081bf4:	e0bffc17 	ldw	r2,-16(fp)
 1081bf8:	18800115 	stw	r2,4(r3)
  list->next           = entry;
 1081bfc:	e0fffb17 	ldw	r3,-20(fp)
 1081c00:	e0bffc17 	ldw	r2,-16(fp)
 1081c04:	18800015 	stw	r2,0(r3)

  return 0;  
 1081c08:	e03fff15 	stw	zero,-4(fp)
 1081c0c:	e0bfff17 	ldw	r2,-4(fp)
}
 1081c10:	e037883a 	mov	sp,fp
 1081c14:	dfc00117 	ldw	ra,4(sp)
 1081c18:	df000017 	ldw	fp,0(sp)
 1081c1c:	dec00204 	addi	sp,sp,8
 1081c20:	f800283a 	ret

01081c24 <alt_get_errno>:
#undef errno

extern int errno;

static ALT_INLINE int* alt_get_errno(void)
{
 1081c24:	defffd04 	addi	sp,sp,-12
 1081c28:	dfc00215 	stw	ra,8(sp)
 1081c2c:	df000115 	stw	fp,4(sp)
 1081c30:	df000104 	addi	fp,sp,4
  return ((alt_errno) ? alt_errno() : &errno);
 1081c34:	00804234 	movhi	r2,264
 1081c38:	108bdd04 	addi	r2,r2,12148
 1081c3c:	10800017 	ldw	r2,0(r2)
 1081c40:	1005003a 	cmpeq	r2,r2,zero
 1081c44:	1000061e 	bne	r2,zero,1081c60 <alt_get_errno+0x3c>
 1081c48:	00804234 	movhi	r2,264
 1081c4c:	108bdd04 	addi	r2,r2,12148
 1081c50:	10800017 	ldw	r2,0(r2)
 1081c54:	103ee83a 	callr	r2
 1081c58:	e0bfff15 	stw	r2,-4(fp)
 1081c5c:	00000306 	br	1081c6c <alt_get_errno+0x48>
 1081c60:	00804234 	movhi	r2,264
 1081c64:	108c9904 	addi	r2,r2,12900
 1081c68:	e0bfff15 	stw	r2,-4(fp)
 1081c6c:	e0bfff17 	ldw	r2,-4(fp)
}
 1081c70:	e037883a 	mov	sp,fp
 1081c74:	dfc00117 	ldw	ra,4(sp)
 1081c78:	df000017 	ldw	fp,0(sp)
 1081c7c:	dec00204 	addi	sp,sp,8
 1081c80:	f800283a 	ret

01081c84 <alt_icache_flush_all>:
/*
 * alt_icache_flush_all() is called to flush the entire instruction cache.
 */

void alt_icache_flush_all (void)
{
 1081c84:	defffe04 	addi	sp,sp,-8
 1081c88:	dfc00115 	stw	ra,4(sp)
 1081c8c:	df000015 	stw	fp,0(sp)
 1081c90:	d839883a 	mov	fp,sp
#if NIOS2_ICACHE_SIZE > 0
  alt_icache_flush (0, NIOS2_ICACHE_SIZE);
 1081c94:	0009883a 	mov	r4,zero
 1081c98:	01420004 	movi	r5,2048
 1081c9c:	10828740 	call	1082874 <alt_icache_flush>
#endif
}
 1081ca0:	e037883a 	mov	sp,fp
 1081ca4:	dfc00117 	ldw	ra,4(sp)
 1081ca8:	df000017 	ldw	fp,0(sp)
 1081cac:	dec00204 	addi	sp,sp,8
 1081cb0:	f800283a 	ret

01081cb4 <alt_ic_isr_register>:
  * @param irq              IRQ number
  * @return                 0 if successful, else error (-1)
  */
int alt_ic_isr_register(alt_u32 ic_id, alt_u32 irq, alt_isr_func isr, 
  void *isr_context, void *flags)
{
 1081cb4:	defff904 	addi	sp,sp,-28
 1081cb8:	dfc00615 	stw	ra,24(sp)
 1081cbc:	df000515 	stw	fp,20(sp)
 1081cc0:	df000504 	addi	fp,sp,20
 1081cc4:	e13ffc15 	stw	r4,-16(fp)
 1081cc8:	e17ffd15 	stw	r5,-12(fp)
 1081ccc:	e1bffe15 	stw	r6,-8(fp)
 1081cd0:	e1ffff15 	stw	r7,-4(fp)
    return alt_iic_isr_register(ic_id, irq, isr, isr_context, flags);
 1081cd4:	e0800217 	ldw	r2,8(fp)
 1081cd8:	d8800015 	stw	r2,0(sp)
 1081cdc:	e13ffc17 	ldw	r4,-16(fp)
 1081ce0:	e17ffd17 	ldw	r5,-12(fp)
 1081ce4:	e1bffe17 	ldw	r6,-8(fp)
 1081ce8:	e1ffff17 	ldw	r7,-4(fp)
 1081cec:	1081e880 	call	1081e88 <alt_iic_isr_register>
}  
 1081cf0:	e037883a 	mov	sp,fp
 1081cf4:	dfc00117 	ldw	ra,4(sp)
 1081cf8:	df000017 	ldw	fp,0(sp)
 1081cfc:	dec00204 	addi	sp,sp,8
 1081d00:	f800283a 	ret

01081d04 <alt_ic_irq_enable>:
  * @param ic_id            Ignored.
  * @param irq              IRQ number
  * @return                 0 if successful, else error (-1)
  */
int alt_ic_irq_enable (alt_u32 ic_id, alt_u32 irq)
{
 1081d04:	defff904 	addi	sp,sp,-28
 1081d08:	df000615 	stw	fp,24(sp)
 1081d0c:	df000604 	addi	fp,sp,24
 1081d10:	e13ffe15 	stw	r4,-8(fp)
 1081d14:	e17fff15 	stw	r5,-4(fp)
 1081d18:	e0bfff17 	ldw	r2,-4(fp)
 1081d1c:	e0bffc15 	stw	r2,-16(fp)
static ALT_INLINE alt_irq_context ALT_ALWAYS_INLINE 
       alt_irq_disable_all (void)
{
  alt_irq_context context;

  NIOS2_READ_STATUS (context);
 1081d20:	0005303a 	rdctl	r2,status
 1081d24:	e0bffb15 	stw	r2,-20(fp)

  NIOS2_WRITE_STATUS (context & ~NIOS2_STATUS_PIE_MSK);
 1081d28:	e0fffb17 	ldw	r3,-20(fp)
 1081d2c:	00bfff84 	movi	r2,-2
 1081d30:	1884703a 	and	r2,r3,r2
 1081d34:	1001703a 	wrctl	status,r2
  
  return context;
 1081d38:	e0bffb17 	ldw	r2,-20(fp)
static ALT_INLINE int ALT_ALWAYS_INLINE alt_irq_enable (alt_u32 id)
{
  alt_irq_context  status;
  extern volatile alt_u32 alt_irq_active;

  status = alt_irq_disable_all ();
 1081d3c:	e0bffd15 	stw	r2,-12(fp)

  alt_irq_active |= (1 << id);
 1081d40:	e0fffc17 	ldw	r3,-16(fp)
 1081d44:	00800044 	movi	r2,1
 1081d48:	10c4983a 	sll	r2,r2,r3
 1081d4c:	1007883a 	mov	r3,r2
 1081d50:	00804234 	movhi	r2,264
 1081d54:	108c9f04 	addi	r2,r2,12924
 1081d58:	10800017 	ldw	r2,0(r2)
 1081d5c:	1886b03a 	or	r3,r3,r2
 1081d60:	00804234 	movhi	r2,264
 1081d64:	108c9f04 	addi	r2,r2,12924
 1081d68:	10c00015 	stw	r3,0(r2)
  NIOS2_WRITE_IENABLE (alt_irq_active);
 1081d6c:	00804234 	movhi	r2,264
 1081d70:	108c9f04 	addi	r2,r2,12924
 1081d74:	10800017 	ldw	r2,0(r2)
 1081d78:	100170fa 	wrctl	ienable,r2
 1081d7c:	e0bffd17 	ldw	r2,-12(fp)
 1081d80:	e0bffa15 	stw	r2,-24(fp)
  status &= ~NIOS2_STATUS_PIE_MSK;
  status |= (context & NIOS2_STATUS_PIE_MSK);
  
  NIOS2_WRITE_STATUS (status);
#else
  NIOS2_WRITE_STATUS (context);
 1081d84:	e0bffa17 	ldw	r2,-24(fp)
 1081d88:	1001703a 	wrctl	status,r2

  alt_irq_enable_all(status);

  return 0;
 1081d8c:	0005883a 	mov	r2,zero
    return alt_irq_enable(irq);
}
 1081d90:	e037883a 	mov	sp,fp
 1081d94:	df000017 	ldw	fp,0(sp)
 1081d98:	dec00104 	addi	sp,sp,4
 1081d9c:	f800283a 	ret

01081da0 <alt_ic_irq_disable>:
  * @param ic_id            Ignored.
  * @param irq              IRQ number
  * @return                 0 if successful, else error (-1)
  */
int alt_ic_irq_disable(alt_u32 ic_id, alt_u32 irq)
{
 1081da0:	defff904 	addi	sp,sp,-28
 1081da4:	df000615 	stw	fp,24(sp)
 1081da8:	df000604 	addi	fp,sp,24
 1081dac:	e13ffe15 	stw	r4,-8(fp)
 1081db0:	e17fff15 	stw	r5,-4(fp)
 1081db4:	e0bfff17 	ldw	r2,-4(fp)
 1081db8:	e0bffc15 	stw	r2,-16(fp)
static ALT_INLINE alt_irq_context ALT_ALWAYS_INLINE 
       alt_irq_disable_all (void)
{
  alt_irq_context context;

  NIOS2_READ_STATUS (context);
 1081dbc:	0005303a 	rdctl	r2,status
 1081dc0:	e0bffb15 	stw	r2,-20(fp)

  NIOS2_WRITE_STATUS (context & ~NIOS2_STATUS_PIE_MSK);
 1081dc4:	e0fffb17 	ldw	r3,-20(fp)
 1081dc8:	00bfff84 	movi	r2,-2
 1081dcc:	1884703a 	and	r2,r3,r2
 1081dd0:	1001703a 	wrctl	status,r2
  
  return context;
 1081dd4:	e0bffb17 	ldw	r2,-20(fp)
static ALT_INLINE int ALT_ALWAYS_INLINE alt_irq_disable (alt_u32 id)
{
  alt_irq_context  status;
  extern volatile alt_u32 alt_irq_active;

  status = alt_irq_disable_all ();
 1081dd8:	e0bffd15 	stw	r2,-12(fp)

  alt_irq_active &= ~(1 << id);
 1081ddc:	e0fffc17 	ldw	r3,-16(fp)
 1081de0:	00800044 	movi	r2,1
 1081de4:	10c4983a 	sll	r2,r2,r3
 1081de8:	0084303a 	nor	r2,zero,r2
 1081dec:	1007883a 	mov	r3,r2
 1081df0:	00804234 	movhi	r2,264
 1081df4:	108c9f04 	addi	r2,r2,12924
 1081df8:	10800017 	ldw	r2,0(r2)
 1081dfc:	1886703a 	and	r3,r3,r2
 1081e00:	00804234 	movhi	r2,264
 1081e04:	108c9f04 	addi	r2,r2,12924
 1081e08:	10c00015 	stw	r3,0(r2)
  NIOS2_WRITE_IENABLE (alt_irq_active);
 1081e0c:	00804234 	movhi	r2,264
 1081e10:	108c9f04 	addi	r2,r2,12924
 1081e14:	10800017 	ldw	r2,0(r2)
 1081e18:	100170fa 	wrctl	ienable,r2
 1081e1c:	e0bffd17 	ldw	r2,-12(fp)
 1081e20:	e0bffa15 	stw	r2,-24(fp)
  status &= ~NIOS2_STATUS_PIE_MSK;
  status |= (context & NIOS2_STATUS_PIE_MSK);
  
  NIOS2_WRITE_STATUS (status);
#else
  NIOS2_WRITE_STATUS (context);
 1081e24:	e0bffa17 	ldw	r2,-24(fp)
 1081e28:	1001703a 	wrctl	status,r2

  alt_irq_enable_all(status);

  return 0;
 1081e2c:	0005883a 	mov	r2,zero
    return alt_irq_disable(irq);
}
 1081e30:	e037883a 	mov	sp,fp
 1081e34:	df000017 	ldw	fp,0(sp)
 1081e38:	dec00104 	addi	sp,sp,4
 1081e3c:	f800283a 	ret

01081e40 <alt_ic_irq_enabled>:
  * @param irq              IRQ number
  * @return                 Zero if corresponding interrupt is disabled and
  *                         non-zero otherwise.
  */
alt_u32 alt_ic_irq_enabled(alt_u32 ic_id, alt_u32 irq)
{
 1081e40:	defffc04 	addi	sp,sp,-16
 1081e44:	df000315 	stw	fp,12(sp)
 1081e48:	df000304 	addi	fp,sp,12
 1081e4c:	e13ffe15 	stw	r4,-8(fp)
 1081e50:	e17fff15 	stw	r5,-4(fp)
    alt_u32 irq_enabled;

    NIOS2_READ_IENABLE(irq_enabled);
 1081e54:	000530fa 	rdctl	r2,ienable
 1081e58:	e0bffd15 	stw	r2,-12(fp)

    return (irq_enabled & (1 << irq)) ? 1: 0;
 1081e5c:	e0ffff17 	ldw	r3,-4(fp)
 1081e60:	00800044 	movi	r2,1
 1081e64:	10c4983a 	sll	r2,r2,r3
 1081e68:	1007883a 	mov	r3,r2
 1081e6c:	e0bffd17 	ldw	r2,-12(fp)
 1081e70:	1884703a 	and	r2,r3,r2
 1081e74:	1004c03a 	cmpne	r2,r2,zero
}
 1081e78:	e037883a 	mov	sp,fp
 1081e7c:	df000017 	ldw	fp,0(sp)
 1081e80:	dec00104 	addi	sp,sp,4
 1081e84:	f800283a 	ret

01081e88 <alt_iic_isr_register>:
  * @param flags            
  * @return                 0 if successful, else error (-1)
  */
int alt_iic_isr_register(alt_u32 ic_id, alt_u32 irq, alt_isr_func isr, 
  void *isr_context, void *flags)
{
 1081e88:	defff404 	addi	sp,sp,-48
 1081e8c:	dfc00b15 	stw	ra,44(sp)
 1081e90:	df000a15 	stw	fp,40(sp)
 1081e94:	df000a04 	addi	fp,sp,40
 1081e98:	e13ffb15 	stw	r4,-20(fp)
 1081e9c:	e17ffc15 	stw	r5,-16(fp)
 1081ea0:	e1bffd15 	stw	r6,-12(fp)
 1081ea4:	e1fffe15 	stw	r7,-8(fp)
  int rc = -EINVAL;  
 1081ea8:	00bffa84 	movi	r2,-22
 1081eac:	e0bffa15 	stw	r2,-24(fp)
  int id = irq;             /* IRQ interpreted as the interrupt ID. */
 1081eb0:	e0bffc17 	ldw	r2,-16(fp)
 1081eb4:	e0bff915 	stw	r2,-28(fp)
  alt_irq_context status;

  if (id < ALT_NIRQ)
 1081eb8:	e0bff917 	ldw	r2,-28(fp)
 1081ebc:	10800808 	cmpgei	r2,r2,32
 1081ec0:	1000291e 	bne	r2,zero,1081f68 <alt_iic_isr_register+0xe0>
static ALT_INLINE alt_irq_context ALT_ALWAYS_INLINE 
       alt_irq_disable_all (void)
{
  alt_irq_context context;

  NIOS2_READ_STATUS (context);
 1081ec4:	0005303a 	rdctl	r2,status
 1081ec8:	e0bff715 	stw	r2,-36(fp)

  NIOS2_WRITE_STATUS (context & ~NIOS2_STATUS_PIE_MSK);
 1081ecc:	e0fff717 	ldw	r3,-36(fp)
 1081ed0:	00bfff84 	movi	r2,-2
 1081ed4:	1884703a 	and	r2,r3,r2
 1081ed8:	1001703a 	wrctl	status,r2
  
  return context;
 1081edc:	e0bff717 	ldw	r2,-36(fp)
     * interrupts are disabled while the handler tables are updated to ensure
     * that an interrupt doesn't occur while the tables are in an inconsistant
     * state.
     */

    status = alt_irq_disable_all();
 1081ee0:	e0bff815 	stw	r2,-32(fp)

    alt_irq[id].handler = isr;
 1081ee4:	e0bff917 	ldw	r2,-28(fp)
 1081ee8:	00c04234 	movhi	r3,264
 1081eec:	18d0a204 	addi	r3,r3,17032
 1081ef0:	100490fa 	slli	r2,r2,3
 1081ef4:	10c7883a 	add	r3,r2,r3
 1081ef8:	e0bffd17 	ldw	r2,-12(fp)
 1081efc:	18800015 	stw	r2,0(r3)
    alt_irq[id].context = isr_context;
 1081f00:	e0bff917 	ldw	r2,-28(fp)
 1081f04:	00c04234 	movhi	r3,264
 1081f08:	18d0a204 	addi	r3,r3,17032
 1081f0c:	100490fa 	slli	r2,r2,3
 1081f10:	10c5883a 	add	r2,r2,r3
 1081f14:	10c00104 	addi	r3,r2,4
 1081f18:	e0bffe17 	ldw	r2,-8(fp)
 1081f1c:	18800015 	stw	r2,0(r3)

    rc = (isr) ? alt_ic_irq_enable(ic_id, id) : alt_ic_irq_disable(ic_id, id);
 1081f20:	e0bffd17 	ldw	r2,-12(fp)
 1081f24:	1005003a 	cmpeq	r2,r2,zero
 1081f28:	1000051e 	bne	r2,zero,1081f40 <alt_iic_isr_register+0xb8>
 1081f2c:	e17ff917 	ldw	r5,-28(fp)
 1081f30:	e13ffb17 	ldw	r4,-20(fp)
 1081f34:	1081d040 	call	1081d04 <alt_ic_irq_enable>
 1081f38:	e0bfff15 	stw	r2,-4(fp)
 1081f3c:	00000406 	br	1081f50 <alt_iic_isr_register+0xc8>
 1081f40:	e17ff917 	ldw	r5,-28(fp)
 1081f44:	e13ffb17 	ldw	r4,-20(fp)
 1081f48:	1081da00 	call	1081da0 <alt_ic_irq_disable>
 1081f4c:	e0bfff15 	stw	r2,-4(fp)
 1081f50:	e0bfff17 	ldw	r2,-4(fp)
 1081f54:	e0bffa15 	stw	r2,-24(fp)
 1081f58:	e0bff817 	ldw	r2,-32(fp)
 1081f5c:	e0bff615 	stw	r2,-40(fp)
  status &= ~NIOS2_STATUS_PIE_MSK;
  status |= (context & NIOS2_STATUS_PIE_MSK);
  
  NIOS2_WRITE_STATUS (status);
#else
  NIOS2_WRITE_STATUS (context);
 1081f60:	e0bff617 	ldw	r2,-40(fp)
 1081f64:	1001703a 	wrctl	status,r2

    alt_irq_enable_all(status);
  }

  return rc; 
 1081f68:	e0bffa17 	ldw	r2,-24(fp)
}
 1081f6c:	e037883a 	mov	sp,fp
 1081f70:	dfc00117 	ldw	ra,4(sp)
 1081f74:	df000017 	ldw	fp,0(sp)
 1081f78:	dec00204 	addi	sp,sp,8
 1081f7c:	f800283a 	ret

01081f80 <alt_open_fd>:
 * If the device can not be succesfully opened, then the input file descriptor
 * remains unchanged.
 */

static void alt_open_fd(alt_fd* fd, const char* name, int flags, int mode)
{
 1081f80:	defff804 	addi	sp,sp,-32
 1081f84:	dfc00715 	stw	ra,28(sp)
 1081f88:	df000615 	stw	fp,24(sp)
 1081f8c:	dc000515 	stw	r16,20(sp)
 1081f90:	df000504 	addi	fp,sp,20
 1081f94:	e13ffc15 	stw	r4,-16(fp)
 1081f98:	e17ffd15 	stw	r5,-12(fp)
 1081f9c:	e1bffe15 	stw	r6,-8(fp)
 1081fa0:	e1ffff15 	stw	r7,-4(fp)
  int old;

  old = open (name, flags, mode);
 1081fa4:	e13ffd17 	ldw	r4,-12(fp)
 1081fa8:	e17ffe17 	ldw	r5,-8(fp)
 1081fac:	e1bfff17 	ldw	r6,-4(fp)
 1081fb0:	10821c80 	call	10821c8 <open>
 1081fb4:	e0bffb15 	stw	r2,-20(fp)

  if (old >= 0)
 1081fb8:	e0bffb17 	ldw	r2,-20(fp)
 1081fbc:	1004803a 	cmplt	r2,r2,zero
 1081fc0:	10001f1e 	bne	r2,zero,1082040 <alt_open_fd+0xc0>
  {
    fd->dev      = alt_fd_list[old].dev;
 1081fc4:	e13ffb17 	ldw	r4,-20(fp)
 1081fc8:	04004234 	movhi	r16,264
 1081fcc:	840b7604 	addi	r16,r16,11736
 1081fd0:	01400304 	movi	r5,12
 1081fd4:	10811280 	call	1081128 <__mulsi3>
 1081fd8:	1405883a 	add	r2,r2,r16
 1081fdc:	10c00017 	ldw	r3,0(r2)
 1081fe0:	e0bffc17 	ldw	r2,-16(fp)
 1081fe4:	10c00015 	stw	r3,0(r2)
    fd->priv     = alt_fd_list[old].priv;
 1081fe8:	e13ffb17 	ldw	r4,-20(fp)
 1081fec:	04004234 	movhi	r16,264
 1081ff0:	840b7604 	addi	r16,r16,11736
 1081ff4:	01400304 	movi	r5,12
 1081ff8:	10811280 	call	1081128 <__mulsi3>
 1081ffc:	1405883a 	add	r2,r2,r16
 1082000:	10800104 	addi	r2,r2,4
 1082004:	10c00017 	ldw	r3,0(r2)
 1082008:	e0bffc17 	ldw	r2,-16(fp)
 108200c:	10c00115 	stw	r3,4(r2)
    fd->fd_flags = alt_fd_list[old].fd_flags;
 1082010:	e13ffb17 	ldw	r4,-20(fp)
 1082014:	04004234 	movhi	r16,264
 1082018:	840b7604 	addi	r16,r16,11736
 108201c:	01400304 	movi	r5,12
 1082020:	10811280 	call	1081128 <__mulsi3>
 1082024:	1405883a 	add	r2,r2,r16
 1082028:	10800204 	addi	r2,r2,8
 108202c:	10c00017 	ldw	r3,0(r2)
 1082030:	e0bffc17 	ldw	r2,-16(fp)
 1082034:	10c00215 	stw	r3,8(r2)

    alt_release_fd (old);
 1082038:	e13ffb17 	ldw	r4,-20(fp)
 108203c:	10823b40 	call	10823b4 <alt_release_fd>
  }
} 
 1082040:	e037883a 	mov	sp,fp
 1082044:	dfc00217 	ldw	ra,8(sp)
 1082048:	df000117 	ldw	fp,4(sp)
 108204c:	dc000017 	ldw	r16,0(sp)
 1082050:	dec00304 	addi	sp,sp,12
 1082054:	f800283a 	ret

01082058 <alt_io_redirect>:
 */
 
void alt_io_redirect(const char* stdout_dev, 
                     const char* stdin_dev, 
                     const char* stderr_dev)
{
 1082058:	defffb04 	addi	sp,sp,-20
 108205c:	dfc00415 	stw	ra,16(sp)
 1082060:	df000315 	stw	fp,12(sp)
 1082064:	df000304 	addi	fp,sp,12
 1082068:	e13ffd15 	stw	r4,-12(fp)
 108206c:	e17ffe15 	stw	r5,-8(fp)
 1082070:	e1bfff15 	stw	r6,-4(fp)
  /* Redirect the channels */

  alt_open_fd (&alt_fd_list[STDOUT_FILENO], stdout_dev, O_WRONLY, 0777);
 1082074:	01004234 	movhi	r4,264
 1082078:	210b7904 	addi	r4,r4,11748
 108207c:	e17ffd17 	ldw	r5,-12(fp)
 1082080:	01800044 	movi	r6,1
 1082084:	01c07fc4 	movi	r7,511
 1082088:	1081f800 	call	1081f80 <alt_open_fd>
  alt_open_fd (&alt_fd_list[STDIN_FILENO], stdin_dev, O_RDONLY, 0777);
 108208c:	01004234 	movhi	r4,264
 1082090:	210b7604 	addi	r4,r4,11736
 1082094:	e17ffe17 	ldw	r5,-8(fp)
 1082098:	000d883a 	mov	r6,zero
 108209c:	01c07fc4 	movi	r7,511
 10820a0:	1081f800 	call	1081f80 <alt_open_fd>
  alt_open_fd (&alt_fd_list[STDERR_FILENO], stderr_dev, O_WRONLY, 0777);
 10820a4:	01004234 	movhi	r4,264
 10820a8:	210b7c04 	addi	r4,r4,11760
 10820ac:	e17fff17 	ldw	r5,-4(fp)
 10820b0:	01800044 	movi	r6,1
 10820b4:	01c07fc4 	movi	r7,511
 10820b8:	1081f800 	call	1081f80 <alt_open_fd>
}  
 10820bc:	e037883a 	mov	sp,fp
 10820c0:	dfc00117 	ldw	ra,4(sp)
 10820c4:	df000017 	ldw	fp,0(sp)
 10820c8:	dec00204 	addi	sp,sp,8
 10820cc:	f800283a 	ret

010820d0 <alt_file_locked>:
 * performed for devices. Filesystems are required to handle the ioctl() call
 * themselves, and report the error from the filesystems open() function. 
 */ 

static int alt_file_locked (alt_fd* fd)
{
 10820d0:	defffa04 	addi	sp,sp,-24
 10820d4:	dfc00515 	stw	ra,20(sp)
 10820d8:	df000415 	stw	fp,16(sp)
 10820dc:	dc000315 	stw	r16,12(sp)
 10820e0:	df000304 	addi	fp,sp,12
 10820e4:	e13ffe15 	stw	r4,-8(fp)

  /*
   * Mark the file descriptor as belonging to a device.
   */

  fd->fd_flags |= ALT_FD_DEV;
 10820e8:	e0bffe17 	ldw	r2,-8(fp)
 10820ec:	10800217 	ldw	r2,8(r2)
 10820f0:	10d00034 	orhi	r3,r2,16384
 10820f4:	e0bffe17 	ldw	r2,-8(fp)
 10820f8:	10c00215 	stw	r3,8(r2)
  /*
   * Loop through all current file descriptors searching for one that's locked
   * for exclusive access. If a match is found, generate an error.
   */

  for (i = 0; i <= alt_max_fd; i++)
 10820fc:	e03ffd15 	stw	zero,-12(fp)
 1082100:	00002306 	br	1082190 <alt_file_locked+0xc0>
  {
    if ((alt_fd_list[i].dev == fd->dev) &&
 1082104:	e13ffd17 	ldw	r4,-12(fp)
 1082108:	04004234 	movhi	r16,264
 108210c:	840b7604 	addi	r16,r16,11736
 1082110:	01400304 	movi	r5,12
 1082114:	10811280 	call	1081128 <__mulsi3>
 1082118:	1405883a 	add	r2,r2,r16
 108211c:	10c00017 	ldw	r3,0(r2)
 1082120:	e0bffe17 	ldw	r2,-8(fp)
 1082124:	10800017 	ldw	r2,0(r2)
 1082128:	1880161e 	bne	r3,r2,1082184 <alt_file_locked+0xb4>
 108212c:	e13ffd17 	ldw	r4,-12(fp)
 1082130:	04004234 	movhi	r16,264
 1082134:	840b7604 	addi	r16,r16,11736
 1082138:	01400304 	movi	r5,12
 108213c:	10811280 	call	1081128 <__mulsi3>
 1082140:	1405883a 	add	r2,r2,r16
 1082144:	10800204 	addi	r2,r2,8
 1082148:	10800017 	ldw	r2,0(r2)
 108214c:	1004403a 	cmpge	r2,r2,zero
 1082150:	10000c1e 	bne	r2,zero,1082184 <alt_file_locked+0xb4>
 1082154:	e13ffd17 	ldw	r4,-12(fp)
 1082158:	01400304 	movi	r5,12
 108215c:	10811280 	call	1081128 <__mulsi3>
 1082160:	1007883a 	mov	r3,r2
 1082164:	00804234 	movhi	r2,264
 1082168:	108b7604 	addi	r2,r2,11736
 108216c:	1887883a 	add	r3,r3,r2
 1082170:	e0bffe17 	ldw	r2,-8(fp)
 1082174:	18800326 	beq	r3,r2,1082184 <alt_file_locked+0xb4>
        (alt_fd_list[i].fd_flags & ALT_FD_EXCL) &&
        (&alt_fd_list[i] != fd))
    {
      return -EACCES;
 1082178:	00bffcc4 	movi	r2,-13
 108217c:	e0bfff15 	stw	r2,-4(fp)
 1082180:	00000a06 	br	10821ac <alt_file_locked+0xdc>
  /*
   * Loop through all current file descriptors searching for one that's locked
   * for exclusive access. If a match is found, generate an error.
   */

  for (i = 0; i <= alt_max_fd; i++)
 1082184:	e0bffd17 	ldw	r2,-12(fp)
 1082188:	10800044 	addi	r2,r2,1
 108218c:	e0bffd15 	stw	r2,-12(fp)
 1082190:	00804234 	movhi	r2,264
 1082194:	108bdc04 	addi	r2,r2,12144
 1082198:	10800017 	ldw	r2,0(r2)
 108219c:	1007883a 	mov	r3,r2
 10821a0:	e0bffd17 	ldw	r2,-12(fp)
 10821a4:	18bfd72e 	bgeu	r3,r2,1082104 <alt_file_locked+0x34>
    }
  }
  
  /* The device is not locked */
 
  return 0;
 10821a8:	e03fff15 	stw	zero,-4(fp)
 10821ac:	e0bfff17 	ldw	r2,-4(fp)
}
 10821b0:	e037883a 	mov	sp,fp
 10821b4:	dfc00217 	ldw	ra,8(sp)
 10821b8:	df000117 	ldw	fp,4(sp)
 10821bc:	dc000017 	ldw	r16,0(sp)
 10821c0:	dec00304 	addi	sp,sp,12
 10821c4:	f800283a 	ret

010821c8 <open>:
 *
 * ALT_OPEN is mapped onto the open() system call in alt_syscall.h
 */
 
int ALT_OPEN (const char* file, int flags, int mode)
{ 
 10821c8:	defff404 	addi	sp,sp,-48
 10821cc:	dfc00b15 	stw	ra,44(sp)
 10821d0:	df000a15 	stw	fp,40(sp)
 10821d4:	df000a04 	addi	fp,sp,40
 10821d8:	e13ffb15 	stw	r4,-20(fp)
 10821dc:	e17ffc15 	stw	r5,-16(fp)
 10821e0:	e1bffd15 	stw	r6,-12(fp)
  alt_dev* dev;
  alt_fd*  fd;
  int index  = -1;
 10821e4:	00bfffc4 	movi	r2,-1
 10821e8:	e0bff815 	stw	r2,-32(fp)
  int status = -ENODEV;
 10821ec:	00bffb44 	movi	r2,-19
 10821f0:	e0bff715 	stw	r2,-36(fp)
  int isafs = 0;
 10821f4:	e03ff615 	stw	zero,-40(fp)
  /* 
   * Check the device list, to see if a device with a matching name is 
   * registered.
   */
  
  if (!(dev = alt_find_dev (file, &alt_dev_list)))
 10821f8:	e13ffb17 	ldw	r4,-20(fp)
 10821fc:	01404234 	movhi	r5,264
 1082200:	294bda04 	addi	r5,r5,12136
 1082204:	10825f00 	call	10825f0 <alt_find_dev>
 1082208:	e0bffa15 	stw	r2,-24(fp)
 108220c:	e0bffa17 	ldw	r2,-24(fp)
 1082210:	1004c03a 	cmpne	r2,r2,zero
 1082214:	1000051e 	bne	r2,zero,108222c <open+0x64>
  {
    /* No matching device, so try the filesystem list */

    dev   = alt_find_file (file);
 1082218:	e13ffb17 	ldw	r4,-20(fp)
 108221c:	10826840 	call	1082684 <alt_find_file>
 1082220:	e0bffa15 	stw	r2,-24(fp)
    isafs = 1;
 1082224:	00800044 	movi	r2,1
 1082228:	e0bff615 	stw	r2,-40(fp)

  /* 
   * If a matching device or filesystem is found, allocate a file descriptor. 
   */

  if (dev)
 108222c:	e0bffa17 	ldw	r2,-24(fp)
 1082230:	1005003a 	cmpeq	r2,r2,zero
 1082234:	1000311e 	bne	r2,zero,10822fc <open+0x134>
  {
    if ((index = alt_get_fd (dev)) < 0)
 1082238:	e13ffa17 	ldw	r4,-24(fp)
 108223c:	10827a40 	call	10827a4 <alt_get_fd>
 1082240:	e0bff815 	stw	r2,-32(fp)
 1082244:	e0bff817 	ldw	r2,-32(fp)
 1082248:	1004403a 	cmpge	r2,r2,zero
 108224c:	1000031e 	bne	r2,zero,108225c <open+0x94>
    {
      status = index;
 1082250:	e0bff817 	ldw	r2,-32(fp)
 1082254:	e0bff715 	stw	r2,-36(fp)
 1082258:	00002a06 	br	1082304 <open+0x13c>
    }
    else
    {
      fd = &alt_fd_list[index];
 108225c:	e13ff817 	ldw	r4,-32(fp)
 1082260:	01400304 	movi	r5,12
 1082264:	10811280 	call	1081128 <__mulsi3>
 1082268:	1007883a 	mov	r3,r2
 108226c:	00804234 	movhi	r2,264
 1082270:	108b7604 	addi	r2,r2,11736
 1082274:	1885883a 	add	r2,r3,r2
 1082278:	e0bff915 	stw	r2,-28(fp)
      fd->fd_flags = (flags & ~ALT_FD_FLAGS_MASK);
 108227c:	e0fffc17 	ldw	r3,-16(fp)
 1082280:	00900034 	movhi	r2,16384
 1082284:	10bfffc4 	addi	r2,r2,-1
 1082288:	1886703a 	and	r3,r3,r2
 108228c:	e0bff917 	ldw	r2,-28(fp)
 1082290:	10c00215 	stw	r3,8(r2)
      
      /* If this is a device, ensure it isn't already locked */

      if (isafs || ((status = alt_file_locked (fd)) >= 0))
 1082294:	e0bff617 	ldw	r2,-40(fp)
 1082298:	1004c03a 	cmpne	r2,r2,zero
 108229c:	1000061e 	bne	r2,zero,10822b8 <open+0xf0>
 10822a0:	e13ff917 	ldw	r4,-28(fp)
 10822a4:	10820d00 	call	10820d0 <alt_file_locked>
 10822a8:	e0bff715 	stw	r2,-36(fp)
 10822ac:	e0bff717 	ldw	r2,-36(fp)
 10822b0:	1004803a 	cmplt	r2,r2,zero
 10822b4:	1000131e 	bne	r2,zero,1082304 <open+0x13c>
        /* 
         * If the device or filesystem provides an open() callback function,
         * call it now to perform any device/filesystem specific operations.
         */
    
        status = (dev->open) ? dev->open(fd, file, flags, mode): 0;
 10822b8:	e0bffa17 	ldw	r2,-24(fp)
 10822bc:	10800317 	ldw	r2,12(r2)
 10822c0:	1005003a 	cmpeq	r2,r2,zero
 10822c4:	1000091e 	bne	r2,zero,10822ec <open+0x124>
 10822c8:	e0bffa17 	ldw	r2,-24(fp)
 10822cc:	10800317 	ldw	r2,12(r2)
 10822d0:	e13ff917 	ldw	r4,-28(fp)
 10822d4:	e17ffb17 	ldw	r5,-20(fp)
 10822d8:	e1bffc17 	ldw	r6,-16(fp)
 10822dc:	e1fffd17 	ldw	r7,-12(fp)
 10822e0:	103ee83a 	callr	r2
 10822e4:	e0bfff15 	stw	r2,-4(fp)
 10822e8:	00000106 	br	10822f0 <open+0x128>
 10822ec:	e03fff15 	stw	zero,-4(fp)
 10822f0:	e0bfff17 	ldw	r2,-4(fp)
 10822f4:	e0bff715 	stw	r2,-36(fp)
 10822f8:	00000206 	br	1082304 <open+0x13c>
      }
    }
  }
  else
  {
    status = -ENODEV;
 10822fc:	00bffb44 	movi	r2,-19
 1082300:	e0bff715 	stw	r2,-36(fp)
  }

  /* Allocation failed, so clean up and return an error */ 

  if (status < 0)
 1082304:	e0bff717 	ldw	r2,-36(fp)
 1082308:	1004403a 	cmpge	r2,r2,zero
 108230c:	1000091e 	bne	r2,zero,1082334 <open+0x16c>
  {
    alt_release_fd (index);  
 1082310:	e13ff817 	ldw	r4,-32(fp)
 1082314:	10823b40 	call	10823b4 <alt_release_fd>
    ALT_ERRNO = -status;
 1082318:	10823540 	call	1082354 <alt_get_errno>
 108231c:	e0fff717 	ldw	r3,-36(fp)
 1082320:	00c7c83a 	sub	r3,zero,r3
 1082324:	10c00015 	stw	r3,0(r2)
    return -1;
 1082328:	00bfffc4 	movi	r2,-1
 108232c:	e0bffe15 	stw	r2,-8(fp)
 1082330:	00000206 	br	108233c <open+0x174>
  }
  
  /* return the reference upon success */

  return index;
 1082334:	e0bff817 	ldw	r2,-32(fp)
 1082338:	e0bffe15 	stw	r2,-8(fp)
 108233c:	e0bffe17 	ldw	r2,-8(fp)
}
 1082340:	e037883a 	mov	sp,fp
 1082344:	dfc00117 	ldw	ra,4(sp)
 1082348:	df000017 	ldw	fp,0(sp)
 108234c:	dec00204 	addi	sp,sp,8
 1082350:	f800283a 	ret

01082354 <alt_get_errno>:
#undef errno

extern int errno;

static ALT_INLINE int* alt_get_errno(void)
{
 1082354:	defffd04 	addi	sp,sp,-12
 1082358:	dfc00215 	stw	ra,8(sp)
 108235c:	df000115 	stw	fp,4(sp)
 1082360:	df000104 	addi	fp,sp,4
  return ((alt_errno) ? alt_errno() : &errno);
 1082364:	00804234 	movhi	r2,264
 1082368:	108bdd04 	addi	r2,r2,12148
 108236c:	10800017 	ldw	r2,0(r2)
 1082370:	1005003a 	cmpeq	r2,r2,zero
 1082374:	1000061e 	bne	r2,zero,1082390 <alt_get_errno+0x3c>
 1082378:	00804234 	movhi	r2,264
 108237c:	108bdd04 	addi	r2,r2,12148
 1082380:	10800017 	ldw	r2,0(r2)
 1082384:	103ee83a 	callr	r2
 1082388:	e0bfff15 	stw	r2,-4(fp)
 108238c:	00000306 	br	108239c <alt_get_errno+0x48>
 1082390:	00804234 	movhi	r2,264
 1082394:	108c9904 	addi	r2,r2,12900
 1082398:	e0bfff15 	stw	r2,-4(fp)
 108239c:	e0bfff17 	ldw	r2,-4(fp)
}
 10823a0:	e037883a 	mov	sp,fp
 10823a4:	dfc00117 	ldw	ra,4(sp)
 10823a8:	df000017 	ldw	fp,0(sp)
 10823ac:	dec00204 	addi	sp,sp,8
 10823b0:	f800283a 	ret

010823b4 <alt_release_fd>:
 * File descriptors correcponding to standard in, standard out and standard 
 * error cannont be released backed to the pool. They are always reserved.
 */

void alt_release_fd (int fd)
{
 10823b4:	defffc04 	addi	sp,sp,-16
 10823b8:	dfc00315 	stw	ra,12(sp)
 10823bc:	df000215 	stw	fp,8(sp)
 10823c0:	dc000115 	stw	r16,4(sp)
 10823c4:	df000104 	addi	fp,sp,4
 10823c8:	e13fff15 	stw	r4,-4(fp)
  if (fd > 2)
 10823cc:	e0bfff17 	ldw	r2,-4(fp)
 10823d0:	108000d0 	cmplti	r2,r2,3
 10823d4:	10000f1e 	bne	r2,zero,1082414 <alt_release_fd+0x60>
  {
    alt_fd_list[fd].fd_flags = 0;
 10823d8:	e13fff17 	ldw	r4,-4(fp)
 10823dc:	04004234 	movhi	r16,264
 10823e0:	840b7604 	addi	r16,r16,11736
 10823e4:	01400304 	movi	r5,12
 10823e8:	10811280 	call	1081128 <__mulsi3>
 10823ec:	1405883a 	add	r2,r2,r16
 10823f0:	10800204 	addi	r2,r2,8
 10823f4:	10000015 	stw	zero,0(r2)
    alt_fd_list[fd].dev      = 0;
 10823f8:	e13fff17 	ldw	r4,-4(fp)
 10823fc:	04004234 	movhi	r16,264
 1082400:	840b7604 	addi	r16,r16,11736
 1082404:	01400304 	movi	r5,12
 1082408:	10811280 	call	1081128 <__mulsi3>
 108240c:	1405883a 	add	r2,r2,r16
 1082410:	10000015 	stw	zero,0(r2)
  }
}
 1082414:	e037883a 	mov	sp,fp
 1082418:	dfc00217 	ldw	ra,8(sp)
 108241c:	df000117 	ldw	fp,4(sp)
 1082420:	dc000017 	ldw	r16,0(sp)
 1082424:	dec00304 	addi	sp,sp,12
 1082428:	f800283a 	ret

0108242c <alt_alarm_stop>:
 * alarms. Alternatively an alarm can unregister itself by returning zero when 
 * the alarm executes.
 */

void alt_alarm_stop (alt_alarm* alarm)
{
 108242c:	defffa04 	addi	sp,sp,-24
 1082430:	df000515 	stw	fp,20(sp)
 1082434:	df000504 	addi	fp,sp,20
 1082438:	e13fff15 	stw	r4,-4(fp)
static ALT_INLINE alt_irq_context ALT_ALWAYS_INLINE 
       alt_irq_disable_all (void)
{
  alt_irq_context context;

  NIOS2_READ_STATUS (context);
 108243c:	0005303a 	rdctl	r2,status
 1082440:	e0bffd15 	stw	r2,-12(fp)

  NIOS2_WRITE_STATUS (context & ~NIOS2_STATUS_PIE_MSK);
 1082444:	e0fffd17 	ldw	r3,-12(fp)
 1082448:	00bfff84 	movi	r2,-2
 108244c:	1884703a 	and	r2,r3,r2
 1082450:	1001703a 	wrctl	status,r2
  
  return context;
 1082454:	e0bffd17 	ldw	r2,-12(fp)
  alt_irq_context irq_context;

  irq_context = alt_irq_disable_all();
 1082458:	e0bffe15 	stw	r2,-8(fp)
  alt_llist_remove (&alarm->llist);
 108245c:	e0bfff17 	ldw	r2,-4(fp)
 1082460:	e0bffc15 	stw	r2,-16(fp)
 * input argument is the element to remove.
 */
     
static ALT_INLINE void ALT_ALWAYS_INLINE alt_llist_remove(alt_llist* entry)
{
  entry->next->previous = entry->previous;
 1082464:	e0bffc17 	ldw	r2,-16(fp)
 1082468:	10c00017 	ldw	r3,0(r2)
 108246c:	e0bffc17 	ldw	r2,-16(fp)
 1082470:	10800117 	ldw	r2,4(r2)
 1082474:	18800115 	stw	r2,4(r3)
  entry->previous->next = entry->next;
 1082478:	e0bffc17 	ldw	r2,-16(fp)
 108247c:	10c00117 	ldw	r3,4(r2)
 1082480:	e0bffc17 	ldw	r2,-16(fp)
 1082484:	10800017 	ldw	r2,0(r2)
 1082488:	18800015 	stw	r2,0(r3)
  /* 
   * Set the entry to point to itself, so that any further calls to
   * alt_llist_remove() are harmless.
   */

  entry->previous = entry;
 108248c:	e0fffc17 	ldw	r3,-16(fp)
 1082490:	e0bffc17 	ldw	r2,-16(fp)
 1082494:	18800115 	stw	r2,4(r3)
  entry->next     = entry;
 1082498:	e0fffc17 	ldw	r3,-16(fp)
 108249c:	e0bffc17 	ldw	r2,-16(fp)
 10824a0:	18800015 	stw	r2,0(r3)
 10824a4:	e0bffe17 	ldw	r2,-8(fp)
 10824a8:	e0bffb15 	stw	r2,-20(fp)
  status &= ~NIOS2_STATUS_PIE_MSK;
  status |= (context & NIOS2_STATUS_PIE_MSK);
  
  NIOS2_WRITE_STATUS (status);
#else
  NIOS2_WRITE_STATUS (context);
 10824ac:	e0bffb17 	ldw	r2,-20(fp)
 10824b0:	1001703a 	wrctl	status,r2
  alt_irq_enable_all (irq_context);
}
 10824b4:	e037883a 	mov	sp,fp
 10824b8:	df000017 	ldw	fp,0(sp)
 10824bc:	dec00104 	addi	sp,sp,4
 10824c0:	f800283a 	ret

010824c4 <alt_tick>:
 * 
 * alt_tick() is expected to run at interrupt level.
 */

void alt_tick (void)
{
 10824c4:	defffb04 	addi	sp,sp,-20
 10824c8:	dfc00415 	stw	ra,16(sp)
 10824cc:	df000315 	stw	fp,12(sp)
 10824d0:	df000304 	addi	fp,sp,12
  alt_alarm* next;
  alt_alarm* alarm = (alt_alarm*) alt_alarm_list.next;
 10824d4:	d0a00917 	ldw	r2,-32732(gp)
 10824d8:	e0bffe15 	stw	r2,-8(fp)

  alt_u32    next_callback;

  /* update the tick counter */

  _alt_nticks++;
 10824dc:	d0a0cb17 	ldw	r2,-31956(gp)
 10824e0:	10800044 	addi	r2,r2,1
 10824e4:	d0a0cb15 	stw	r2,-31956(gp)

  /* process the registered callbacks */

  while (alarm != (alt_alarm*) &alt_alarm_list)
 10824e8:	00003106 	br	10825b0 <alt_tick+0xec>
  {
    next = (alt_alarm*) alarm->llist.next;
 10824ec:	e0bffe17 	ldw	r2,-8(fp)
 10824f0:	10800017 	ldw	r2,0(r2)
 10824f4:	e0bfff15 	stw	r2,-4(fp)
    /* 
     * Upon the tick-counter rolling over it is safe to clear the 
     * roll-over flag; once the flag is cleared this (or subsequnt)
     * tick events are enabled to generate an alarm event. 
     */
    if ((alarm->rollover) && (_alt_nticks == 0))
 10824f8:	e0bffe17 	ldw	r2,-8(fp)
 10824fc:	10800403 	ldbu	r2,16(r2)
 1082500:	10803fcc 	andi	r2,r2,255
 1082504:	1005003a 	cmpeq	r2,r2,zero
 1082508:	1000051e 	bne	r2,zero,1082520 <alt_tick+0x5c>
 108250c:	d0a0cb17 	ldw	r2,-31956(gp)
 1082510:	1004c03a 	cmpne	r2,r2,zero
 1082514:	1000021e 	bne	r2,zero,1082520 <alt_tick+0x5c>
    {
      alarm->rollover = 0;
 1082518:	e0bffe17 	ldw	r2,-8(fp)
 108251c:	10000405 	stb	zero,16(r2)
    }
    
    /* if the alarm period has expired, make the callback */    
    if ((alarm->time <= _alt_nticks) && (alarm->rollover == 0))
 1082520:	e0bffe17 	ldw	r2,-8(fp)
 1082524:	10c00217 	ldw	r3,8(r2)
 1082528:	d0a0cb17 	ldw	r2,-31956(gp)
 108252c:	10c01e36 	bltu	r2,r3,10825a8 <alt_tick+0xe4>
 1082530:	e0bffe17 	ldw	r2,-8(fp)
 1082534:	10800403 	ldbu	r2,16(r2)
 1082538:	10803fcc 	andi	r2,r2,255
 108253c:	1004c03a 	cmpne	r2,r2,zero
 1082540:	1000191e 	bne	r2,zero,10825a8 <alt_tick+0xe4>
    {
      next_callback = alarm->callback (alarm->context);
 1082544:	e0bffe17 	ldw	r2,-8(fp)
 1082548:	10c00317 	ldw	r3,12(r2)
 108254c:	e0bffe17 	ldw	r2,-8(fp)
 1082550:	11000517 	ldw	r4,20(r2)
 1082554:	183ee83a 	callr	r3
 1082558:	e0bffd15 	stw	r2,-12(fp)

      /* deactivate the alarm if the return value is zero */

      if (next_callback == 0)
 108255c:	e0bffd17 	ldw	r2,-12(fp)
 1082560:	1004c03a 	cmpne	r2,r2,zero
 1082564:	1000031e 	bne	r2,zero,1082574 <alt_tick+0xb0>
      {
        alt_alarm_stop (alarm);
 1082568:	e13ffe17 	ldw	r4,-8(fp)
 108256c:	108242c0 	call	108242c <alt_alarm_stop>
 1082570:	00000d06 	br	10825a8 <alt_tick+0xe4>
      }
      else
      {
        alarm->time += next_callback;
 1082574:	e0bffe17 	ldw	r2,-8(fp)
 1082578:	10c00217 	ldw	r3,8(r2)
 108257c:	e0bffd17 	ldw	r2,-12(fp)
 1082580:	1887883a 	add	r3,r3,r2
 1082584:	e0bffe17 	ldw	r2,-8(fp)
 1082588:	10c00215 	stw	r3,8(r2)
        /* 
         * If the desired alarm time causes a roll-over, set the rollover
         * flag. This will prevent the subsequent tick event from causing
         * an alarm too early.
         */
        if(alarm->time < _alt_nticks)
 108258c:	e0bffe17 	ldw	r2,-8(fp)
 1082590:	10c00217 	ldw	r3,8(r2)
 1082594:	d0a0cb17 	ldw	r2,-31956(gp)
 1082598:	1880032e 	bgeu	r3,r2,10825a8 <alt_tick+0xe4>
        {
          alarm->rollover = 1;
 108259c:	e0fffe17 	ldw	r3,-8(fp)
 10825a0:	00800044 	movi	r2,1
 10825a4:	18800405 	stb	r2,16(r3)
        }
      }
    }
    alarm = next;
 10825a8:	e0bfff17 	ldw	r2,-4(fp)
 10825ac:	e0bffe15 	stw	r2,-8(fp)

  _alt_nticks++;

  /* process the registered callbacks */

  while (alarm != (alt_alarm*) &alt_alarm_list)
 10825b0:	d0e00904 	addi	r3,gp,-32732
 10825b4:	e0bffe17 	ldw	r2,-8(fp)
 10825b8:	10ffcc1e 	bne	r2,r3,10824ec <alt_tick+0x28>
  /* 
   * Update the operating system specific timer facilities.
   */

  ALT_OS_TIME_TICK();
}
 10825bc:	e037883a 	mov	sp,fp
 10825c0:	dfc00117 	ldw	ra,4(sp)
 10825c4:	df000017 	ldw	fp,0(sp)
 10825c8:	dec00204 	addi	sp,sp,8
 10825cc:	f800283a 	ret

010825d0 <altera_nios2_qsys_irq_init>:
/*
 * To initialize the internal interrupt controller, just clear the IENABLE
 * register so that all possible IRQs are disabled.
 */
void altera_nios2_qsys_irq_init(void) 
{
 10825d0:	deffff04 	addi	sp,sp,-4
 10825d4:	df000015 	stw	fp,0(sp)
 10825d8:	d839883a 	mov	fp,sp
    NIOS2_WRITE_IENABLE(0);
 10825dc:	000170fa 	wrctl	ienable,zero
}
 10825e0:	e037883a 	mov	sp,fp
 10825e4:	df000017 	ldw	fp,0(sp)
 10825e8:	dec00104 	addi	sp,sp,4
 10825ec:	f800283a 	ret

010825f0 <alt_find_dev>:
 * "name" must be an exact match for the devices registered name for a match to
 * be found.
 */
 
alt_dev* alt_find_dev(const char* name, alt_llist* llist)
{
 10825f0:	defff904 	addi	sp,sp,-28
 10825f4:	dfc00615 	stw	ra,24(sp)
 10825f8:	df000515 	stw	fp,20(sp)
 10825fc:	df000504 	addi	fp,sp,20
 1082600:	e13ffd15 	stw	r4,-12(fp)
 1082604:	e17ffe15 	stw	r5,-8(fp)
  alt_dev* next = (alt_dev*) llist->next;
 1082608:	e0bffe17 	ldw	r2,-8(fp)
 108260c:	10800017 	ldw	r2,0(r2)
 1082610:	e0bffc15 	stw	r2,-16(fp)
  alt_32 len;

  len  = strlen(name) + 1;
 1082614:	e13ffd17 	ldw	r4,-12(fp)
 1082618:	10807480 	call	1080748 <strlen>
 108261c:	10800044 	addi	r2,r2,1
 1082620:	e0bffb15 	stw	r2,-20(fp)
  /*
   * Check each list entry in turn, until a match is found, or we reach the
   * end of the list (i.e. next winds up pointing back to the list head).
   */ 

  while (next != (alt_dev*) llist)
 1082624:	00000d06 	br	108265c <alt_find_dev+0x6c>
    /* 
     * memcmp() is used here rather than strcmp() in order to reduce the size
     * of the executable.
     */

    if (!memcmp (next->name, name, len))
 1082628:	e0bffc17 	ldw	r2,-16(fp)
 108262c:	11000217 	ldw	r4,8(r2)
 1082630:	e1bffb17 	ldw	r6,-20(fp)
 1082634:	e17ffd17 	ldw	r5,-12(fp)
 1082638:	10829240 	call	1082924 <memcmp>
 108263c:	1004c03a 	cmpne	r2,r2,zero
 1082640:	1000031e 	bne	r2,zero,1082650 <alt_find_dev+0x60>
    {
      /* match found */

      return next;
 1082644:	e0bffc17 	ldw	r2,-16(fp)
 1082648:	e0bfff15 	stw	r2,-4(fp)
 108264c:	00000706 	br	108266c <alt_find_dev+0x7c>
    }
    next = (alt_dev*) next->llist.next;
 1082650:	e0bffc17 	ldw	r2,-16(fp)
 1082654:	10800017 	ldw	r2,0(r2)
 1082658:	e0bffc15 	stw	r2,-16(fp)
  /*
   * Check each list entry in turn, until a match is found, or we reach the
   * end of the list (i.e. next winds up pointing back to the list head).
   */ 

  while (next != (alt_dev*) llist)
 108265c:	e0fffe17 	ldw	r3,-8(fp)
 1082660:	e0bffc17 	ldw	r2,-16(fp)
 1082664:	10fff01e 	bne	r2,r3,1082628 <alt_find_dev+0x38>
    next = (alt_dev*) next->llist.next;
  }
  
  /* No match found */
  
  return NULL;
 1082668:	e03fff15 	stw	zero,-4(fp)
 108266c:	e0bfff17 	ldw	r2,-4(fp)
}
 1082670:	e037883a 	mov	sp,fp
 1082674:	dfc00117 	ldw	ra,4(sp)
 1082678:	df000017 	ldw	fp,0(sp)
 108267c:	dec00204 	addi	sp,sp,8
 1082680:	f800283a 	ret

01082684 <alt_find_file>:
 * either '/' or '\0' is the prefix of the filename. For example the filename:
 * "/myfilesystem/junk.txt" would match: "/myfilesystem", but not: "/myfile". 
 */
 
alt_dev* alt_find_file (const char* name)
{
 1082684:	defffa04 	addi	sp,sp,-24
 1082688:	dfc00515 	stw	ra,20(sp)
 108268c:	df000415 	stw	fp,16(sp)
 1082690:	df000404 	addi	fp,sp,16
 1082694:	e13ffe15 	stw	r4,-8(fp)
  alt_dev* next = (alt_dev*) alt_fs_list.next;   
 1082698:	00804234 	movhi	r2,264
 108269c:	108bd804 	addi	r2,r2,12128
 10826a0:	10800017 	ldw	r2,0(r2)
 10826a4:	e0bffd15 	stw	r2,-12(fp)
  /*
   * Check each list entry in turn, until a match is found, or we reach the
   * end of the list (i.e. next winds up pointing back to the list head).
   */ 
 
  while (next != (alt_dev*) &alt_fs_list)
 10826a8:	00003306 	br	1082778 <alt_find_file+0xf4>
  {
    len = strlen(next->name);
 10826ac:	e0bffd17 	ldw	r2,-12(fp)
 10826b0:	11000217 	ldw	r4,8(r2)
 10826b4:	10807480 	call	1080748 <strlen>
 10826b8:	e0bffc15 	stw	r2,-16(fp)
    
    if (next->name[len-1] == '/')
 10826bc:	e0bffd17 	ldw	r2,-12(fp)
 10826c0:	10c00217 	ldw	r3,8(r2)
 10826c4:	e0bffc17 	ldw	r2,-16(fp)
 10826c8:	1885883a 	add	r2,r3,r2
 10826cc:	10bfffc4 	addi	r2,r2,-1
 10826d0:	10800003 	ldbu	r2,0(r2)
 10826d4:	10803fcc 	andi	r2,r2,255
 10826d8:	1080201c 	xori	r2,r2,128
 10826dc:	10bfe004 	addi	r2,r2,-128
 10826e0:	10800bd8 	cmpnei	r2,r2,47
 10826e4:	1000031e 	bne	r2,zero,10826f4 <alt_find_file+0x70>
    {
      len -= 1;
 10826e8:	e0bffc17 	ldw	r2,-16(fp)
 10826ec:	10bfffc4 	addi	r2,r2,-1
 10826f0:	e0bffc15 	stw	r2,-16(fp)
    }

    if (((name[len] == '/') || (name[len] == '\0')) && 
 10826f4:	e0bffc17 	ldw	r2,-16(fp)
 10826f8:	1007883a 	mov	r3,r2
 10826fc:	e0bffe17 	ldw	r2,-8(fp)
 1082700:	1885883a 	add	r2,r3,r2
 1082704:	10800003 	ldbu	r2,0(r2)
 1082708:	10803fcc 	andi	r2,r2,255
 108270c:	1080201c 	xori	r2,r2,128
 1082710:	10bfe004 	addi	r2,r2,-128
 1082714:	10800be0 	cmpeqi	r2,r2,47
 1082718:	10000a1e 	bne	r2,zero,1082744 <alt_find_file+0xc0>
 108271c:	e0bffc17 	ldw	r2,-16(fp)
 1082720:	1007883a 	mov	r3,r2
 1082724:	e0bffe17 	ldw	r2,-8(fp)
 1082728:	1885883a 	add	r2,r3,r2
 108272c:	10800003 	ldbu	r2,0(r2)
 1082730:	10803fcc 	andi	r2,r2,255
 1082734:	1080201c 	xori	r2,r2,128
 1082738:	10bfe004 	addi	r2,r2,-128
 108273c:	1004c03a 	cmpne	r2,r2,zero
 1082740:	10000a1e 	bne	r2,zero,108276c <alt_find_file+0xe8>
 1082744:	e0bffd17 	ldw	r2,-12(fp)
 1082748:	11000217 	ldw	r4,8(r2)
 108274c:	e1bffc17 	ldw	r6,-16(fp)
 1082750:	e17ffe17 	ldw	r5,-8(fp)
 1082754:	10829240 	call	1082924 <memcmp>
 1082758:	1004c03a 	cmpne	r2,r2,zero
 108275c:	1000031e 	bne	r2,zero,108276c <alt_find_file+0xe8>
        !memcmp (next->name, name, len))
    {
      /* match found */

      return next;
 1082760:	e0bffd17 	ldw	r2,-12(fp)
 1082764:	e0bfff15 	stw	r2,-4(fp)
 1082768:	00000806 	br	108278c <alt_find_file+0x108>
    }
    next = (alt_dev*) next->llist.next;
 108276c:	e0bffd17 	ldw	r2,-12(fp)
 1082770:	10800017 	ldw	r2,0(r2)
 1082774:	e0bffd15 	stw	r2,-12(fp)
  /*
   * Check each list entry in turn, until a match is found, or we reach the
   * end of the list (i.e. next winds up pointing back to the list head).
   */ 
 
  while (next != (alt_dev*) &alt_fs_list)
 1082778:	00c04234 	movhi	r3,264
 108277c:	18cbd804 	addi	r3,r3,12128
 1082780:	e0bffd17 	ldw	r2,-12(fp)
 1082784:	10ffc91e 	bne	r2,r3,10826ac <alt_find_file+0x28>
    next = (alt_dev*) next->llist.next;
  }
  
  /* No match found */
  
  return NULL;     
 1082788:	e03fff15 	stw	zero,-4(fp)
 108278c:	e0bfff17 	ldw	r2,-4(fp)
}
 1082790:	e037883a 	mov	sp,fp
 1082794:	dfc00117 	ldw	ra,4(sp)
 1082798:	df000017 	ldw	fp,0(sp)
 108279c:	dec00204 	addi	sp,sp,8
 10827a0:	f800283a 	ret

010827a4 <alt_get_fd>:
 * the offset of the file descriptor within the file descriptor array). A
 * negative value indicates failure.
 */

int alt_get_fd (alt_dev* dev)
{
 10827a4:	defffa04 	addi	sp,sp,-24
 10827a8:	dfc00515 	stw	ra,20(sp)
 10827ac:	df000415 	stw	fp,16(sp)
 10827b0:	dc000315 	stw	r16,12(sp)
 10827b4:	df000304 	addi	fp,sp,12
 10827b8:	e13fff15 	stw	r4,-4(fp)
  alt_32 i;
  int rc = -EMFILE;
 10827bc:	00bffa04 	movi	r2,-24
 10827c0:	e0bffd15 	stw	r2,-12(fp)
   * indicates the highest file descriptor ever allocated. This is used to
   * improve efficency when searching the file descriptor list, and 
   * therefore reduce contention on the alt_fd_list_lock semaphore. 
   */

  for (i = 0; i < ALT_MAX_FD; i++)
 10827c4:	e03ffe15 	stw	zero,-8(fp)
 10827c8:	00002006 	br	108284c <alt_get_fd+0xa8>
  {
    if (!alt_fd_list[i].dev)
 10827cc:	e13ffe17 	ldw	r4,-8(fp)
 10827d0:	04004234 	movhi	r16,264
 10827d4:	840b7604 	addi	r16,r16,11736
 10827d8:	01400304 	movi	r5,12
 10827dc:	10811280 	call	1081128 <__mulsi3>
 10827e0:	1405883a 	add	r2,r2,r16
 10827e4:	10800017 	ldw	r2,0(r2)
 10827e8:	1004c03a 	cmpne	r2,r2,zero
 10827ec:	1000141e 	bne	r2,zero,1082840 <alt_get_fd+0x9c>
    {
      alt_fd_list[i].dev = dev;
 10827f0:	e13ffe17 	ldw	r4,-8(fp)
 10827f4:	04004234 	movhi	r16,264
 10827f8:	840b7604 	addi	r16,r16,11736
 10827fc:	01400304 	movi	r5,12
 1082800:	10811280 	call	1081128 <__mulsi3>
 1082804:	1407883a 	add	r3,r2,r16
 1082808:	e0bfff17 	ldw	r2,-4(fp)
 108280c:	18800015 	stw	r2,0(r3)
      if (i > alt_max_fd)
 1082810:	00804234 	movhi	r2,264
 1082814:	108bdc04 	addi	r2,r2,12144
 1082818:	10c00017 	ldw	r3,0(r2)
 108281c:	e0bffe17 	ldw	r2,-8(fp)
 1082820:	1880040e 	bge	r3,r2,1082834 <alt_get_fd+0x90>
      {
        alt_max_fd = i;
 1082824:	00c04234 	movhi	r3,264
 1082828:	18cbdc04 	addi	r3,r3,12144
 108282c:	e0bffe17 	ldw	r2,-8(fp)
 1082830:	18800015 	stw	r2,0(r3)
      }
      rc = i;
 1082834:	e0bffe17 	ldw	r2,-8(fp)
 1082838:	e0bffd15 	stw	r2,-12(fp)
      goto alt_get_fd_exit;
 108283c:	00000606 	br	1082858 <alt_get_fd+0xb4>
   * indicates the highest file descriptor ever allocated. This is used to
   * improve efficency when searching the file descriptor list, and 
   * therefore reduce contention on the alt_fd_list_lock semaphore. 
   */

  for (i = 0; i < ALT_MAX_FD; i++)
 1082840:	e0bffe17 	ldw	r2,-8(fp)
 1082844:	10800044 	addi	r2,r2,1
 1082848:	e0bffe15 	stw	r2,-8(fp)
 108284c:	e0bffe17 	ldw	r2,-8(fp)
 1082850:	10800810 	cmplti	r2,r2,32
 1082854:	103fdd1e 	bne	r2,zero,10827cc <alt_get_fd+0x28>
   * file descriptor pool.
   */

  ALT_SEM_POST(alt_fd_list_lock);

  return rc;
 1082858:	e0bffd17 	ldw	r2,-12(fp)
}
 108285c:	e037883a 	mov	sp,fp
 1082860:	dfc00217 	ldw	ra,8(sp)
 1082864:	df000117 	ldw	fp,4(sp)
 1082868:	dc000017 	ldw	r16,0(sp)
 108286c:	dec00304 	addi	sp,sp,12
 1082870:	f800283a 	ret

01082874 <alt_icache_flush>:
 * alt_icache_flush() is called to flush the instruction cache for a memory
 * region of length "len" bytes, starting at address "start".
 */

void alt_icache_flush (void* start, alt_u32 len)
{
 1082874:	defffb04 	addi	sp,sp,-20
 1082878:	df000415 	stw	fp,16(sp)
 108287c:	df000404 	addi	fp,sp,16
 1082880:	e13ffe15 	stw	r4,-8(fp)
 1082884:	e17fff15 	stw	r5,-4(fp)

  /*
   * This is the most we would ever need to flush.
   */
 
  if (len > NIOS2_ICACHE_SIZE)
 1082888:	e0bfff17 	ldw	r2,-4(fp)
 108288c:	10820070 	cmpltui	r2,r2,2049
 1082890:	1000021e 	bne	r2,zero,108289c <alt_icache_flush+0x28>
  {
    len = NIOS2_ICACHE_SIZE;
 1082894:	00820004 	movi	r2,2048
 1082898:	e0bfff15 	stw	r2,-4(fp)
  }

  end = ((char*) start) + len;
 108289c:	e0fffe17 	ldw	r3,-8(fp)
 10828a0:	e0bfff17 	ldw	r2,-4(fp)
 10828a4:	1885883a 	add	r2,r3,r2
 10828a8:	e0bffc15 	stw	r2,-16(fp)

  for (i = start; i < end; i+= NIOS2_ICACHE_LINE_SIZE)
 10828ac:	e0bffe17 	ldw	r2,-8(fp)
 10828b0:	e0bffd15 	stw	r2,-12(fp)
 10828b4:	00000506 	br	10828cc <alt_icache_flush+0x58>
  { 
    __asm__ volatile ("flushi %0" :: "r" (i)); 
 10828b8:	e0bffd17 	ldw	r2,-12(fp)
 10828bc:	1000603a 	flushi	r2
    len = NIOS2_ICACHE_SIZE;
  }

  end = ((char*) start) + len;

  for (i = start; i < end; i+= NIOS2_ICACHE_LINE_SIZE)
 10828c0:	e0bffd17 	ldw	r2,-12(fp)
 10828c4:	10800804 	addi	r2,r2,32
 10828c8:	e0bffd15 	stw	r2,-12(fp)
 10828cc:	e0fffd17 	ldw	r3,-12(fp)
 10828d0:	e0bffc17 	ldw	r2,-16(fp)
 10828d4:	18bff836 	bltu	r3,r2,10828b8 <alt_icache_flush+0x44>
   * For an unaligned flush request, we've got one more line left.
   * Note that this is dependent on NIOS2_ICACHE_LINE_SIZE to be a 
   * multiple of 2 (which it always is).
   */

  if (((alt_u32) start) & (NIOS2_ICACHE_LINE_SIZE - 1))
 10828d8:	e0bffe17 	ldw	r2,-8(fp)
 10828dc:	108007cc 	andi	r2,r2,31
 10828e0:	1005003a 	cmpeq	r2,r2,zero
 10828e4:	1000021e 	bne	r2,zero,10828f0 <alt_icache_flush+0x7c>
  {
    __asm__ volatile ("flushi %0" :: "r" (i));
 10828e8:	e0bffd17 	ldw	r2,-12(fp)
 10828ec:	1000603a 	flushi	r2
  /* 
   * Having flushed the cache, flush any stale instructions in the 
   * pipeline 
   */

  __asm__ volatile ("flushp");
 10828f0:	0000203a 	flushp

#endif /* NIOS2_ICACHE_SIZE > 0 */
}
 10828f4:	e037883a 	mov	sp,fp
 10828f8:	df000017 	ldw	fp,0(sp)
 10828fc:	dec00104 	addi	sp,sp,4
 1082900:	f800283a 	ret

01082904 <exit>:
 1082904:	defffe04 	addi	sp,sp,-8
 1082908:	dc400015 	stw	r17,0(sp)
 108290c:	000b883a 	mov	r5,zero
 1082910:	2023883a 	mov	r17,r4
 1082914:	dfc00115 	stw	ra,4(sp)
 1082918:	10829640 	call	1082964 <__call_exitprocs>
 108291c:	8809883a 	mov	r4,r17
 1082920:	1082b600 	call	1082b60 <_exit>

01082924 <memcmp>:
 1082924:	31ffffc4 	addi	r7,r6,-1
 1082928:	3000061e 	bne	r6,zero,1082944 <memcmp+0x20>
 108292c:	00000a06 	br	1082958 <memcmp+0x34>
 1082930:	39ffffc4 	addi	r7,r7,-1
 1082934:	00bfffc4 	movi	r2,-1
 1082938:	21000044 	addi	r4,r4,1
 108293c:	29400044 	addi	r5,r5,1
 1082940:	38800526 	beq	r7,r2,1082958 <memcmp+0x34>
 1082944:	20c00003 	ldbu	r3,0(r4)
 1082948:	28800003 	ldbu	r2,0(r5)
 108294c:	18bff826 	beq	r3,r2,1082930 <memcmp+0xc>
 1082950:	1885c83a 	sub	r2,r3,r2
 1082954:	f800283a 	ret
 1082958:	0005883a 	mov	r2,zero
 108295c:	f800283a 	ret

01082960 <register_fini>:
 1082960:	f800283a 	ret

01082964 <__call_exitprocs>:
 1082964:	defff304 	addi	sp,sp,-52
 1082968:	00804234 	movhi	r2,264
 108296c:	108bd704 	addi	r2,r2,12124
 1082970:	df000b15 	stw	fp,44(sp)
 1082974:	17000017 	ldw	fp,0(r2)
 1082978:	00800034 	movhi	r2,0
 108297c:	10800004 	addi	r2,r2,0
 1082980:	1005003a 	cmpeq	r2,r2,zero
 1082984:	d8800215 	stw	r2,8(sp)
 1082988:	e0800c04 	addi	r2,fp,48
 108298c:	dd800915 	stw	r22,36(sp)
 1082990:	dd400815 	stw	r21,32(sp)
 1082994:	dfc00c15 	stw	ra,48(sp)
 1082998:	ddc00a15 	stw	r23,40(sp)
 108299c:	dd000715 	stw	r20,28(sp)
 10829a0:	dcc00615 	stw	r19,24(sp)
 10829a4:	dc800515 	stw	r18,20(sp)
 10829a8:	dc400415 	stw	r17,16(sp)
 10829ac:	dc000315 	stw	r16,12(sp)
 10829b0:	282d883a 	mov	r22,r5
 10829b4:	d9000115 	stw	r4,4(sp)
 10829b8:	d8800015 	stw	r2,0(sp)
 10829bc:	282b003a 	cmpeq	r21,r5,zero
 10829c0:	e4400c17 	ldw	r17,48(fp)
 10829c4:	88001226 	beq	r17,zero,1082a10 <__call_exitprocs+0xac>
 10829c8:	ddc00017 	ldw	r23,0(sp)
 10829cc:	88800117 	ldw	r2,4(r17)
 10829d0:	8c802217 	ldw	r18,136(r17)
 10829d4:	143fffc4 	addi	r16,r2,-1
 10829d8:	80000b16 	blt	r16,zero,1082a08 <__call_exitprocs+0xa4>
 10829dc:	9027003a 	cmpeq	r19,r18,zero
 10829e0:	a800171e 	bne	r21,zero,1082a40 <__call_exitprocs+0xdc>
 10829e4:	9800051e 	bne	r19,zero,10829fc <__call_exitprocs+0x98>
 10829e8:	8409883a 	add	r4,r16,r16
 10829ec:	2105883a 	add	r2,r4,r4
 10829f0:	1485883a 	add	r2,r2,r18
 10829f4:	10c02017 	ldw	r3,128(r2)
 10829f8:	b0c01226 	beq	r22,r3,1082a44 <__call_exitprocs+0xe0>
 10829fc:	843fffc4 	addi	r16,r16,-1
 1082a00:	00bfffc4 	movi	r2,-1
 1082a04:	80bff61e 	bne	r16,r2,10829e0 <__call_exitprocs+0x7c>
 1082a08:	d8800217 	ldw	r2,8(sp)
 1082a0c:	10003226 	beq	r2,zero,1082ad8 <__call_exitprocs+0x174>
 1082a10:	dfc00c17 	ldw	ra,48(sp)
 1082a14:	df000b17 	ldw	fp,44(sp)
 1082a18:	ddc00a17 	ldw	r23,40(sp)
 1082a1c:	dd800917 	ldw	r22,36(sp)
 1082a20:	dd400817 	ldw	r21,32(sp)
 1082a24:	dd000717 	ldw	r20,28(sp)
 1082a28:	dcc00617 	ldw	r19,24(sp)
 1082a2c:	dc800517 	ldw	r18,20(sp)
 1082a30:	dc400417 	ldw	r17,16(sp)
 1082a34:	dc000317 	ldw	r16,12(sp)
 1082a38:	dec00d04 	addi	sp,sp,52
 1082a3c:	f800283a 	ret
 1082a40:	8409883a 	add	r4,r16,r16
 1082a44:	88c00117 	ldw	r3,4(r17)
 1082a48:	2105883a 	add	r2,r4,r4
 1082a4c:	1445883a 	add	r2,r2,r17
 1082a50:	18ffffc4 	addi	r3,r3,-1
 1082a54:	11800217 	ldw	r6,8(r2)
 1082a58:	1c001826 	beq	r3,r16,1082abc <__call_exitprocs+0x158>
 1082a5c:	10000215 	stw	zero,8(r2)
 1082a60:	303fe626 	beq	r6,zero,10829fc <__call_exitprocs+0x98>
 1082a64:	8d000117 	ldw	r20,4(r17)
 1082a68:	9800121e 	bne	r19,zero,1082ab4 <__call_exitprocs+0x150>
 1082a6c:	00c00044 	movi	r3,1
 1082a70:	1c06983a 	sll	r3,r3,r16
 1082a74:	90804017 	ldw	r2,256(r18)
 1082a78:	1884703a 	and	r2,r3,r2
 1082a7c:	10000d26 	beq	r2,zero,1082ab4 <__call_exitprocs+0x150>
 1082a80:	90804117 	ldw	r2,260(r18)
 1082a84:	1884703a 	and	r2,r3,r2
 1082a88:	10000e1e 	bne	r2,zero,1082ac4 <__call_exitprocs+0x160>
 1082a8c:	2105883a 	add	r2,r4,r4
 1082a90:	1485883a 	add	r2,r2,r18
 1082a94:	11400017 	ldw	r5,0(r2)
 1082a98:	d9000117 	ldw	r4,4(sp)
 1082a9c:	303ee83a 	callr	r6
 1082aa0:	88800117 	ldw	r2,4(r17)
 1082aa4:	a0bfc61e 	bne	r20,r2,10829c0 <__call_exitprocs+0x5c>
 1082aa8:	b8800017 	ldw	r2,0(r23)
 1082aac:	147fd326 	beq	r2,r17,10829fc <__call_exitprocs+0x98>
 1082ab0:	003fc306 	br	10829c0 <__call_exitprocs+0x5c>
 1082ab4:	303ee83a 	callr	r6
 1082ab8:	003ff906 	br	1082aa0 <__call_exitprocs+0x13c>
 1082abc:	8c000115 	stw	r16,4(r17)
 1082ac0:	003fe706 	br	1082a60 <__call_exitprocs+0xfc>
 1082ac4:	2105883a 	add	r2,r4,r4
 1082ac8:	1485883a 	add	r2,r2,r18
 1082acc:	11000017 	ldw	r4,0(r2)
 1082ad0:	303ee83a 	callr	r6
 1082ad4:	003ff206 	br	1082aa0 <__call_exitprocs+0x13c>
 1082ad8:	88800117 	ldw	r2,4(r17)
 1082adc:	10000b1e 	bne	r2,zero,1082b0c <__call_exitprocs+0x1a8>
 1082ae0:	89000017 	ldw	r4,0(r17)
 1082ae4:	20000a26 	beq	r4,zero,1082b10 <__call_exitprocs+0x1ac>
 1082ae8:	b9000015 	stw	r4,0(r23)
 1082aec:	90000226 	beq	r18,zero,1082af8 <__call_exitprocs+0x194>
 1082af0:	9009883a 	mov	r4,r18
 1082af4:	00000000 	call	0 <__alt_mem_sdram-0x800000>
 1082af8:	8809883a 	mov	r4,r17
 1082afc:	00000000 	call	0 <__alt_mem_sdram-0x800000>
 1082b00:	bc400017 	ldw	r17,0(r23)
 1082b04:	883fb11e 	bne	r17,zero,10829cc <__call_exitprocs+0x68>
 1082b08:	003fc106 	br	1082a10 <__call_exitprocs+0xac>
 1082b0c:	89000017 	ldw	r4,0(r17)
 1082b10:	882f883a 	mov	r23,r17
 1082b14:	2023883a 	mov	r17,r4
 1082b18:	883fac1e 	bne	r17,zero,10829cc <__call_exitprocs+0x68>
 1082b1c:	003fbc06 	br	1082a10 <__call_exitprocs+0xac>

01082b20 <alt_sim_halt>:

/*
 * Routine called on exit.
 */
static ALT_ALWAYS_INLINE void alt_sim_halt(int exit_code)
{
 1082b20:	defffd04 	addi	sp,sp,-12
 1082b24:	df000215 	stw	fp,8(sp)
 1082b28:	df000204 	addi	fp,sp,8
 1082b2c:	e13fff15 	stw	r4,-4(fp)
  int r2 = exit_code;
 1082b30:	e0bfff17 	ldw	r2,-4(fp)
 1082b34:	e0bffe15 	stw	r2,-8(fp)
  __asm__ volatile ("\n0:\n\taddi %0,%0, -1\n\tbgt %0,zero,0b" : : "r" (ALT_CPU_FREQ/100) ); /* Delay for >30ms */

  __asm__ volatile ("break 2" : : "D02"(r2), "D03"(r3) ALT_GMON_DATA );

#else /* !DEBUG_STUB */
  if (r2) {
 1082b38:	e0bffe17 	ldw	r2,-8(fp)
 1082b3c:	1005003a 	cmpeq	r2,r2,zero
 1082b40:	1000021e 	bne	r2,zero,1082b4c <alt_sim_halt+0x2c>
    ALT_SIM_FAIL();
 1082b44:	002af070 	cmpltui	zero,zero,43969
 1082b48:	00000106 	br	1082b50 <alt_sim_halt+0x30>
  } else {
    ALT_SIM_PASS();
 1082b4c:	002af0b0 	cmpltui	zero,zero,43970
  }
#endif /* DEBUG_STUB */
}
 1082b50:	e037883a 	mov	sp,fp
 1082b54:	df000017 	ldw	fp,0(sp)
 1082b58:	dec00104 	addi	sp,sp,4
 1082b5c:	f800283a 	ret

01082b60 <_exit>:
 *
 * ALT_EXIT is mapped onto the _exit() system call in alt_syscall.h
 */

void ALT_EXIT (int exit_code)
{
 1082b60:	defffd04 	addi	sp,sp,-12
 1082b64:	dfc00215 	stw	ra,8(sp)
 1082b68:	df000115 	stw	fp,4(sp)
 1082b6c:	df000104 	addi	fp,sp,4
 1082b70:	e13fff15 	stw	r4,-4(fp)
  ALT_OS_STOP();

  /* Provide notification to the simulator that we've stopped */

  ALT_LOG_PRINT_BOOT("[alt_exit.c] Calling ALT_SIM_HALT().\r\n");
  ALT_SIM_HALT(exit_code);
 1082b74:	e13fff17 	ldw	r4,-4(fp)
 1082b78:	1082b200 	call	1082b20 <alt_sim_halt>

  /* spin forever, since there's no where to go back to */

  ALT_LOG_PRINT_BOOT("[alt_exit.c] Spinning forever.\r\n");
  while (1);
 1082b7c:	003fff06 	br	1082b7c <_exit+0x1c>
 1082b80:	01082960 	cmpeqi	r4,zero,8357
